(dp0
S'7DDCBEB1D07966B8ADF0C6A572B680CB'
p1
S'4E66A3742591D0075E5141D8D077FE5C'
p2
sS'1A54E85AFAB9D2865EEC78E6DD2E11C5'
p3
S'2B3D6100800676FD6F2FAAFF06C46569'
p4
sS'ACDACD77A9E05F2825EEFB4A93697731'
p5
S'720C1637EC413AA781A963C1E5C4663E'
p6
sS'689D11CBB7190882C99381E966F47DC5'
p7
S'287D4324E3389C5B97DE9064DC68F7DD'
p8
sS'FBB247E044BB9F4834A396009D8322B4'
p9
S'640CD3CC95DB834BE673624C2E2C8274'
p10
sS'548E69A374BA4C1BEE0917D58EB63C27'
p11
S'287D4324E3389C5B97DE9064DC68F7DD'
p12
sS'BF783AC9523FFDD8FAC7686FDE1B7A6D'
p13
S'287D4324E3389C5B97DE9064DC68F7DD'
p14
sS'C9F7285E8C973D5A58CE817A0A62DF01'
p15
S'287D4324E3389C5B97DE9064DC68F7DD'
p16
sS'692BA841820D65DCD3F5A36DB26A2CC2'
p17
S'59E2A230DD641F0AC8494FE8BC9FC9E0'
p18
sS'FC44F413CD90EA81918621E8F1E93CF9'
p19
S'287D4324E3389C5B97DE9064DC68F7DD'
p20
sS'F22D5911F859AC51BB15F63620CFC07C'
p21
S'720C1637EC413AA781A963C1E5C4663E'
p22
sS'D57EC4B21DE5C175673418F6358AAADA'
p23
S'352D373C4C38EAEF5C2B9C79B9C33459'
p24
sS'747F8CFC241CC63747B294DA17F6DC93'
p25
S'2EBD6FE32F911ABAFC95CA387DB1C3C1'
p26
sS'EE72B15BABDB00909A66EDEB1147328C'
p27
S'DBAB7641FD1733974E9D25CD45A28D09'
p28
sS'0537AADAC682FE360BCA13B9B6B41CEC'
p29
S'287D4324E3389C5B97DE9064DC68F7DD'
p30
sS'917C0F0EF375E917806D8171F3F9EBCF'
p31
S'720C1637EC413AA781A963C1E5C4663E'
p32
sS'477DEF855932D6B17E919DF57A009D32'
p33
S'287D4324E3389C5B97DE9064DC68F7DD'
p34
sS'2A7A15A6173D858CC7F9C1C136CE2055'
p35
S'720C1637EC413AA781A963C1E5C4663E'
p36
sS'80CF549CB6B11FA3E91CCC443EB236F3'
p37
S'287D4324E3389C5B97DE9064DC68F7DD'
p38
sS'405BF91E6AB147D1665D7071E1A0379F'
p39
S'034548B3971600E49457412FD95699FA'
p40
sS'8B77F229D551965F5EB8565A8DE00637'
p41
S'5A0BB14422765904102670189EB7441E'
p42
sS'50DD17C1A858FF2F0F4CC568E755B3EC'
p43
S'1DF714BF268150FB9E263BA9AC5D2DED'
p44
sS'5FF6B2AE690099562E56E92EA145DB43'
p45
S'720C1637EC413AA781A963C1E5C4663E'
p46
sS'069288848E2E9CE3747E9E0330262352'
p47
S'8C1DBEC1D69F11D9C7D5BAFD04BAFD7E'
p48
sS'3F5A1EA9CDA15659C158851267FA9F39'
p49
S'F400280B3BDA7A7CDF7B569E60CA126B'
p50
sS'13943A9954DCD49B1BB01EA62BE833D7'
p51
S'EB2B1C183C3F5F38A1D28ADF6657D4CF'
p52
sS'5AA02FFFBB98410C254C42CC9BECE195'
p53
S'418FD4A8607AAC69CEEB39EF5F0A4F56'
p54
sS'29894EC4046F242F902FBA17EED9A2BE'
p55
S'287D4324E3389C5B97DE9064DC68F7DD'
p56
sS'5ED5D86CF666126C464BE91F0A0C0AC5'
p57
S'1E4BBCEE1A524D60359A90152A2C3C19'
p58
sS'4BA4688DC7A42665291EF7B3A88A196A'
p59
S'287D4324E3389C5B97DE9064DC68F7DD'
p60
sS'55DE72298FFCD56F82A5DED27419B850'
p61
S'0276F5BA9BC37ADCAC54A9C4D8141C74'
p62
sS'920D9FE12A2FE31A2D3CE70115807508'
p63
S'352D373C4C38EAEF5C2B9C79B9C33459'
p64
sS'CA8CC291933B0D23B7F96038871C4061'
p65
S'720C1637EC413AA781A963C1E5C4663E'
p66
sS'76C83F622BA8B16DED99F81EEE8E6C91'
p67
S'D3D1F3F38724F7FDCD8B622252D2BC4A'
p68
sS'518673DEF6CD621822C21743F631EEC5'
p69
S'720C1637EC413AA781A963C1E5C4663E'
p70
sS'CA59ED3FA3597021FFD126095CABF2E0'
p71
S'287D4324E3389C5B97DE9064DC68F7DD'
p72
sS'CA8962427BBDF1729099729F02FD100C'
p73
S'ECDF8D4AC38D720E5C6CF4426D7CD5AE'
p74
sS'81F393D39846EF19A66E185BE3B408DA'
p75
S'287D4324E3389C5B97DE9064DC68F7DD'
p76
sS'CB2DAEC1ADA663453864C21557245067'
p77
S'B6B6D417BF997BD5E4EC8C734EB9600D'
p78
sS'04D82ACFEBAD32C4BF18025A5AA02F02'
p79
S'CBD7A0119F9030C5EBA9FAE7C711EC1D'
p80
sS'FB6F3F887E27F2DFC652DC87D806CFCE'
p81
S'CBCA8165488F1B4E75CCE236F2639E2F'
p82
sS'B5F226D012B4A924C2F64DA4BDFAAC29'
p83
S'720C1637EC413AA781A963C1E5C4663E'
p84
sS'B11695A6F2BAB18B6CFCCC602E506B0A'
p85
S'2FB28F11A1B13E47F049590DA01A1091'
p86
sS'3039CCD37CB19AD1E215A6A05D4FF09D'
p87
S'4DDB8FC9889FE66630B4FC92431D2ACB'
p88
sS'95B88208E214C2E9890C064ABE8D2057'
p89
S'287D4324E3389C5B97DE9064DC68F7DD'
p90
sS'96A7641AF78A55FC18468B02D0FC974E'
p91
S'C5478558E9C316C9285E0ADE259B1E6C'
p92
sS'A88245D2850E1EFD3798A3E050BFD71C'
p93
S'720C1637EC413AA781A963C1E5C4663E'
p94
sS'4035386FF553C4C138F3DDFD8F56F631'
p95
S'55AC2A4DA42EFE4BC4A20E672AC3352A'
p96
sS'A635A06E6277BB12698D24C9925FAD1D'
p97
S'287D4324E3389C5B97DE9064DC68F7DD'
p98
sS'C7880A7544892E8226E0215D1CF2E0A0'
p99
S'720C1637EC413AA781A963C1E5C4663E'
p100
sS'2760D2BD0119365B3C6071F0DC5C2EE8'
p101
S'19D2CE5E97A849196168AFCC4480ACCF'
p102
sS'109E6A3AF4BBE2C0BF078B617B008354'
p103
S'720C1637EC413AA781A963C1E5C4663E'
p104
sS'B9A5FD52085B6A48BD830E908F5F8407'
p105
S'287D4324E3389C5B97DE9064DC68F7DD'
p106
sS'2D024EEC1A8DB2E44888F5719B6711BA'
p107
S'287D4324E3389C5B97DE9064DC68F7DD'
p108
sS'6AF5B74DE043102BBCC0D829105DDF89'
p109
S'287D4324E3389C5B97DE9064DC68F7DD'
p110
sS'AA95799A48C53A4B41BBA0495B5AA07C'
p111
S'720C1637EC413AA781A963C1E5C4663E'
p112
sS'36C9C58FE451A5DFB15460F08E4BC264'
p113
S'720C1637EC413AA781A963C1E5C4663E'
p114
sS'564A37C456B6E25B037C5457412FF3BE'
p115
S'B70DFDB3C1D80A7E032B7DDFDC27672D'
p116
sS'E6A52EFEBB6162EEA5EACB3928D1A067'
p117
S'720C1637EC413AA781A963C1E5C4663E'
p118
sS'FE0CDF4DA809BC8FC209BAB725DA9856'
p119
S'CB821080592987280C94D2454BA09DA3'
p120
sS'E792C790593D34D8A776ECC53308AF1D'
p121
S'720C1637EC413AA781A963C1E5C4663E'
p122
sS'59EB90E2860579666061156EFAD51FEC'
p123
S'1762A2A2E7D25C5813B280B138165235'
p124
sS'1890E74528E80BCA1F9E54E881E6DE26'
p125
S'0530C8BDF9D06CF40C3EDE62000E2B5C'
p126
sS'9468BD95C6C46E36ACAE3C21C03E7463'
p127
S'287D4324E3389C5B97DE9064DC68F7DD'
p128
sS'21BB1B5201ADE407A39AF3A037FDCDE0'
p129
S'E3DF144309CAB5660CB0DE0ABF69FB2D'
p130
sS'2F284932CF2DADCA4C9B7050DD1E68D6'
p131
S'E13C908DDE1D8DE74F46DCE222360452'
p132
sS'9426B26E0D750BAD2624CDC5AF4BF4F7'
p133
S'720C1637EC413AA781A963C1E5C4663E'
p134
sS'B6A1E545DEF874758D08B39D32D7B191'
p135
S'14CE05014E3938F329C9E3ADFF2ADDDD'
p136
sS'32180E364142F277182370FED9670965'
p137
S'A0AA70E78ED6C4DB9BB2FA8B98BD1F47'
p138
sS'096DB64D8CE1CB46A8EABA19A8201B49'
p139
S'720C1637EC413AA781A963C1E5C4663E'
p140
sS'9065C3255DADD93E841B570AA912B8A1'
p141
S'720C1637EC413AA781A963C1E5C4663E'
p142
sS'EF8422246E4F70347BDC26D432EEB3FF'
p143
S'720C1637EC413AA781A963C1E5C4663E'
p144
sS'2259FF9A2FBD09C3D00C3660D23E5771'
p145
S'4C1566AF54FA217ED1A004BBB606BE64'
p146
sS'F30A5C5F74E1D402229CAA47FE2B80F5'
p147
S'720C1637EC413AA781A963C1E5C4663E'
p148
sS'EA4D0E6112E20336E2FDEE5E7247F2A0'
p149
S'287D4324E3389C5B97DE9064DC68F7DD'
p150
sS'9216BBFD03669AE39DB24E41C0A0444D'
p151
S'720C1637EC413AA781A963C1E5C4663E'
p152
sS'5270B195F57284F819AA6D2B8EC776DF'
p153
S'1A30ABCB9C2D4AA8E54DCCC139C065EC'
p154
sS'989A15DD134E09BA2B18C1B25DC7C2CA'
p155
S'287D4324E3389C5B97DE9064DC68F7DD'
p156
sS'81D94C3B6B504E18258525C5F7AB13C5'
p157
S'306498A9958D67D1A6E3000ABEB4EB14'
p158
sS'DF97C53C7983B1FB693CD3696B1CB335'
p159
S'B5822C66664ADBE4E267FC2DFEF36491'
p160
sS'DBED9E3581D87DE2141110265BF77E20'
p161
S'17299D38D9FDA843DE5C55BBEB5502C7'
p162
sS'7A586A6DE5CAFAC1EA01CC80B7348667'
p163
S'720C1637EC413AA781A963C1E5C4663E'
p164
sS'41DDEDFA562DF30709F4F743F63FB061'
p165
S'A94618A2D164DAAF80161469EFEFE0DA'
p166
sS'E8A0835D92113C3C1EA315A463D3A89E'
p167
S'287D4324E3389C5B97DE9064DC68F7DD'
p168
sS'96AB57C6EB85DA09CA962517A12E5734'
p169
S'943AAE5D682FDD8EF8C8E55CE056BD7D'
p170
sS'8CF76C58575D00BE0CCE0C47CED3265D'
p171
S'720C1637EC413AA781A963C1E5C4663E'
p172
sS'C60A1D92642B543791DF63E64E459308'
p173
S'287D4324E3389C5B97DE9064DC68F7DD'
p174
sS'CE53AE64DDAA6F8CC8521B0A5173A3D0'
p175
S'F17317C52070CF8E98FA766CF6F38FF7'
p176
sS'755F282499CD429016281AD5F7B80D82'
p177
S'7918BDF9A10BACC6433E651C93B7E952'
p178
sS'756B6F3B20F029AB0B93620595E028A2'
p179
S'4AE9A43CAB92A3F35C4937A03A43A615'
p180
sS'3BDAFBBD80EC44EC54B5299B21C4D43D'
p181
S'D09D805D83EAB9690F262BC196A330AC'
p182
sS'DB048DB38674903F221FF951D8110325'
p183
S'E5CEDEDBCB29F00350835F46BEADAA9E'
p184
sS'A448BB8D2BE26E81D3F3ABCF18D9BF67'
p185
S'8CCEFE0F9D829951935AD669CDEBB159'
p186
sS'BF24F701A1F5B7684182AD446FD19621'
p187
S'287D4324E3389C5B97DE9064DC68F7DD'
p188
sS'C2673855C6F276CEC51536009437D760'
p189
S'862A25964BC4F739465E4CF3989EC43E'
p190
sS'CAFBC75FBE136B24E8DD1D307911DF9B'
p191
S'287D4324E3389C5B97DE9064DC68F7DD'
p192
sS'4A8627D782CFA04992252C0A6B74BD9C'
p193
S'E50766473F67A08C923222E04E55CB2E'
p194
sS'E2AB0F022CCBAB2E36192B095541A4FB'
p195
S'888A42D498F2F402003B2BC2890F7938'
p196
sS'5DB3A0FD79D912151AA7FBD99C2D9404'
p197
S'D5BA17A679C38D1E2856B59FB6C216DE'
p198
sS'E2033B35C9AC622FFA05BB05041C2A74'
p199
S'44E207C6DEA90F882C4F4EF28BF04E10'
p200
sS'656964C9D3D8F4C720D465C368D8FDFA'
p201
S'C59BB172C594FF701EAE87D64EA3D192'
p202
sS'CC2F5DC429A6914238DE9503DA92FFA0'
p203
S'FDDA9CDA844CA702717272ABED645FB2'
p204
sS'5645EFE431F4157878FA67DBADE01FC7'
p205
S'720C1637EC413AA781A963C1E5C4663E'
p206
sS'DA6EA30D6BB7225442F579BC88A8A173'
p207
S'287D4324E3389C5B97DE9064DC68F7DD'
p208
sS'216227951300867CBB03D2F0BF366B3A'
p209
S'D4335737345B45025620141BE5874C9C'
p210
sS'E91A34A265F02A64012CFE072636FFB0'
p211
S'2E76EA85D31BDD02796044816BD346EF'
p212
sS'3A9CC53B19832D77CB47644C20045508'
p213
S'058F6058E6EC98D99F56077439557B8B'
p214
sS'09B466B396EB0D028D046B63EBD51F4D'
p215
S'923202B1D7EEAA98E7BB4AA435B10964'
p216
sS'B6113A3CFBA2DEF34DE3D9722834FB8B'
p217
S'F654F7CAA479913495E9B07FC3507880'
p218
sS'58174AAA18F71EDD1547917092745187'
p219
S'EE3500A10CC7E315E3BE51144D67698F'
p220
sS'6EC444E2A7F3B3C5525D0891233336F0'
p221
S'287D4324E3389C5B97DE9064DC68F7DD'
p222
sS'52FAA862AAA48A89B65A075839BF3EAC'
p223
S'558023734828116639BCBE3A53F4785E'
p224
sS'0C9962741F31A709E557F5BE7B129B92'
p225
S'316F8566527AA64D7E94DE150DF3DFF2'
p226
sS'71D0622AB7FFEF55D17A259DF6736DCA'
p227
S'50FB34C124DB4B44BBD9DD6DDD80822B'
p228
sS'008BDD7E9AB91051EC5AE278FFD49E4F'
p229
S'720C1637EC413AA781A963C1E5C4663E'
p230
sS'7CA63AEC2E88475D3F44DF095C1A6071'
p231
S'F88D90D5B91CE123AAD023B8F19F60DD'
p232
sS'D322CA912922253BFF72A1B0F500AC35'
p233
S'349BF81233EDFFCE3154882778466F62'
p234
sS'C525E72945F8D7A413F5CB3C1FC06A4E'
p235
S'44E207C6DEA90F882C4F4EF28BF04E10'
p236
sS'9DB77879036C4A45F2B883E4D7369C65'
p237
S'287D4324E3389C5B97DE9064DC68F7DD'
p238
sS'DE983BB5EA742795351B5E97EA23F767'
p239
S'27F0CC99919176F688AC8A66DC85FC66'
p240
sS'1E28FFBAE7848B68D7B3F7336D166ADC'
p241
S'287D4324E3389C5B97DE9064DC68F7DD'
p242
sS'2420E83893B2050D8006F3DE4D4B45E8'
p243
S'287D4324E3389C5B97DE9064DC68F7DD'
p244
sS'52A273E7BD59A929AFC7CC170843EC1F'
p245
S'287D4324E3389C5B97DE9064DC68F7DD'
p246
sS'0322021C342C64A4CDFBCA7B9B983F52'
p247
S'7E9A44BB3D98D0406D228324C30E7ACF'
p248
sS'9806553CD879B952261471C9353FECFD'
p249
S'5E256BFD8193AB62817340274B3D9851'
p250
sS'53B54D76622E8C71E2E60998282BBD7D'
p251
S'287D4324E3389C5B97DE9064DC68F7DD'
p252
sS'0B5A159E777D119CEBE29B6FF1709A2C'
p253
S'720C1637EC413AA781A963C1E5C4663E'
p254
sS'E3876943E6DD9745C038C22DDF3C64B7'
p255
S'352D373C4C38EAEF5C2B9C79B9C33459'
p256
sS'DB75388F6E96EB31B3E9EE718A4D6F42'
p257
S'287D4324E3389C5B97DE9064DC68F7DD'
p258
sS'F3FB5810B12AF02694B633D02CC096EB'
p259
S'6B8ADE1CB130D694774329617665C1F8'
p260
sS'1951416F14934A9115F9ED06003BA4AE'
p261
S'51AB6DFD7C5E1F4864DBD176BADE3A5E'
p262
sS'5FAE218CAEE06BD4C243F9B18395AB20'
p263
S'5E03392D73FCAF0CCCAD6FD6382BDDA3'
p264
sS'C20EAC455C68AE2DD377301A25D49E8E'
p265
S'287D4324E3389C5B97DE9064DC68F7DD'
p266
sS'F823F3F39F5A10BE37CF92BBB84BC7C4'
p267
S'A94E674EA9609B88E4E19C92169EC523'
p268
sS'D7F3A36FFD40938669CD9FDFD19D3EF0'
p269
S'A58DC9C3C605F6F82EB67EF9004556A8'
p270
sS'4F1FD84DE075FC8A296A4B4AE03EEE3C'
p271
S'865391AF60B44DAFFC8F5D646A7FE743'
p272
sS'5C9E59062AF36852F9614FD3762DC5AF'
p273
S'883E4296668F4FDC92718BACBE0A92EC'
p274
sS'FB6D20F4A833DAC5AC69A203ABE27AA1'
p275
S'B4D389A48684A4649BC472FA60AA54C6'
p276
sS'A72DFC2B7B12E171F1F9028CEFC4C180'
p277
S'6326EA7F4B8975511E13991EDD070C07'
p278
sS'0B725885EB6A34458D97531AEA00988E'
p279
S'A40F80C44020A69168BBB17425091160'
p280
sS'A6F7849B7EC6C63BDE15787831E8E618'
p281
S'DDBDCFB565A5EADEC6CCDF47224D7EC5'
p282
sS'2FCE1BCDFA1626BB94138ABD10D49EEA'
p283
S'287D4324E3389C5B97DE9064DC68F7DD'
p284
sS'6F54AACA7D93AD21D79DD3A70B417E15'
p285
S'1699FB0D29681E75790D29BB175B2150'
p286
sS'4A46289C6D0E97D0C3634575B1E8C854'
p287
S'1CB3261A8ACA5B11BA462F97C8E03E3B'
p288
sS'5A9A123A9558A67C19E145A3C0FD9F9D'
p289
S'96B695DFE56B33C5A8DAC802E2337A0D'
p290
sS'C97CF0B2787F92839F9912B3F3414BDA'
p291
S'287D4324E3389C5B97DE9064DC68F7DD'
p292
sS'CE51F6C19F25B78129D60F1D2549AD6F'
p293
S'720C1637EC413AA781A963C1E5C4663E'
p294
sS'362D40541FB6943EE85EC8F0A0893E4B'
p295
S'68A2F9945B6278E1B6DDA027262FD651'
p296
sS'4920CDCEA05B03F9A304E0352DEDB426'
p297
S'287D4324E3389C5B97DE9064DC68F7DD'
p298
sS'7513E032E28F8300D93F5C09D02B2296'
p299
S'5430D51E0F03DC22740108270588A221'
p300
sS'BC37B41F17CCC5FE081E7AF525B822B1'
p301
S'30DE178459FC0D3EC081BE4C28014B94'
p302
sS'0B7E5CAF850738501EA2E61713A5BF04'
p303
S'352D373C4C38EAEF5C2B9C79B9C33459'
p304
sS'F6BCE5D9ED6D5A6B9CB46DD65C366629'
p305
S'287D4324E3389C5B97DE9064DC68F7DD'
p306
sS'DD60781C7075F2A3504095C5DC81BDA1'
p307
S'9ED49495FC42499993FF1E81BABFB961'
p308
sS'6829906032E617269B530DC2DDD6FF9F'
p309
S'720C1637EC413AA781A963C1E5C4663E'
p310
sS'E94F2F803664CB8320DF2BB86F6ADD64'
p311
S'720C1637EC413AA781A963C1E5C4663E'
p312
sS'F034CC98968DFC936607F969310883C6'
p313
S'720C1637EC413AA781A963C1E5C4663E'
p314
sS'6ECB8F709A297C8746EB348DEDA36B22'
p315
S'7B8C37B6B6378EB95CE23326C1AA2C49'
p316
sS'6D970605205F85AEBF05A1D158ACB576'
p317
S'720C1637EC413AA781A963C1E5C4663E'
p318
sS'54B75C5029D01336F6F0723460961E4E'
p319
S'287D4324E3389C5B97DE9064DC68F7DD'
p320
sS'C14890045CD7B6E635BA70F906E5D532'
p321
S'287D4324E3389C5B97DE9064DC68F7DD'
p322
sS'647F914770E18DE7F8D693C0394F3850'
p323
S'720C1637EC413AA781A963C1E5C4663E'
p324
sS'4BF3F9682979F57CC9BBF53F8D6C429C'
p325
S'F224EFBA9394744C0D8F9F2EBBFF6E9D'
p326
sS'A74F84CDCFDF426CA94BE9787AFB7BC0'
p327
S'1EC77BC9879091E8D7F87B9A03B59EF8'
p328
sS'23BC596408C29F73FF9884BFBC8C735C'
p329
S'03EE9DD89FEBFAD9665B5CCA6A94F14E'
p330
sS'837B415B5CE6EDCC23EAC633CC10598B'
p331
S'720C1637EC413AA781A963C1E5C4663E'
p332
sS'292F3987D71D80516B7FD9B2F6864C49'
p333
S'720C1637EC413AA781A963C1E5C4663E'
p334
sS'55FED9F68F971B76F15C3472F4F03AD2'
p335
S'9E0E9FADF5132309DFF281FC3227B27C'
p336
sS'8C9441EC9168F7BC55FD8E816C217228'
p337
S'287D4324E3389C5B97DE9064DC68F7DD'
p338
sS'6AFEFEB334E7521F07F35F0C7402AC97'
p339
S'287D4324E3389C5B97DE9064DC68F7DD'
p340
sS'4E2CA4D9A5626ECF1B8A10EE51AA4768'
p341
S'DDBDCFB565A5EADEC6CCDF47224D7EC5'
p342
sS'8800C04A6A95D609FA1E326EBBB7F0E6'
p343
S'287D4324E3389C5B97DE9064DC68F7DD'
p344
sS'221E63089A46A1A2C737A95EC87D4249'
p345
S'5BCD48EE0223A72FAA5CABCAEF80EC61'
p346
sS'5C063E8871554B6744DF22F35088D5DB'
p347
S'720C1637EC413AA781A963C1E5C4663E'
p348
sS'B1CDBBC7BE9F01F61E6A103DDAB8E231'
p349
S'EBE8A8343C0A127F8A9D0B5778BC7A83'
p350
sS'EEB9F0786374B3A676DD61B8465F8ED9'
p351
S'E1F21E5EDDDD73DB50C4B051D5EEE370'
p352
sS'C5BA238C2FA3D29E05C86A008FED6C10'
p353
S'720C1637EC413AA781A963C1E5C4663E'
p354
sS'A5F0154234EE3496E8875B6B424D8488'
p355
S'923202B1D7EEAA98E7BB4AA435B10964'
p356
sS'80B5FA2C128AE94F4EA97E1E20B4E520'
p357
S'720C1637EC413AA781A963C1E5C4663E'
p358
sS'061C5CE612348D8614351FF431CF2EA4'
p359
S'CB2175964A64E1AB02431FFE840FAD8D'
p360
sS'F8FB52F66835212CE7BED65628595946'
p361
S'287D4324E3389C5B97DE9064DC68F7DD'
p362
sS'5860A9D0E27B73DE19B431A732E20DC7'
p363
S'287D4324E3389C5B97DE9064DC68F7DD'
p364
sS'40B03D25415172D347FB3F43098405CE'
p365
S'70FB2D8B52A1F9C86D6E1A41E63E7ABE'
p366
sS'BBFEC1BA47879615BBA75B210F32DE76'
p367
S'2F48A0A94E31128807BC1021A863EDFA'
p368
sS'BCEFE0C211A8B52468903907F925CB41'
p369
S'AF643BA90D7857ED69A7A6484CEB0225'
p370
sS'7F52348EB6117874455A28791374E8BB'
p371
S'EB549BACBE9063A19A93B3A14AED268F'
p372
sS'8D85BA9D839DA6592FF72E32C07CF751'
p373
S'E746A8C4A3153133EE309DFA22B4C2CD'
p374
sS'0D109ACDAE586D60742C9B7A140EE47F'
p375
S'6BCBD30A2792687CE4DA222EB1CB34DE'
p376
sS'6F98C16C7AE0283E3C4B56F254FA9759'
p377
S'23E95C98FD4776ACACCDAD77C0005019'
p378
sS'5E1B26DB1693491AFFF7C751A697EFF9'
p379
S'287D4324E3389C5B97DE9064DC68F7DD'
p380
sS'06745373A9B74D9E3F62C76CD1FE529E'
p381
S'720C1637EC413AA781A963C1E5C4663E'
p382
sS'5F707DC14B077893EC2219B68D64575A'
p383
S'A061E371DA65087340207DB0C485DA87'
p384
sS'28B328846CF8CA9B772E9F135DA58715'
p385
S'287D4324E3389C5B97DE9064DC68F7DD'
p386
sS'AC1C72B032EA2EDEAAAB6BC6C96FC865'
p387
S'287D4324E3389C5B97DE9064DC68F7DD'
p388
sS'1C2D6791BEF5CBA7636B2D78C5BD5AD2'
p389
S'720C1637EC413AA781A963C1E5C4663E'
p390
sS'88CA83667BA5C8176FBC9793F96DBB5B'
p391
S'53AAAD1AB8DA729DEDF672A5C86B2258'
p392
sS'9B80743B20DC1612027CB4AF00590417'
p393
S'4E3CFCC22E5E8DA34C2F974DA8BBA378'
p394
sS'F6BBAA8B888DD4CBC3D0E4A2BC47E6C0'
p395
S'DCE3FED41B63F878DFAC82EC9C399623'
p396
sS'4E5F116C5BF16031F3E8777FC8EFD069'
p397
S'6D571723C2ECD890828E9A3DA2CB4743'
p398
sS'32438C06F12B719BC5BEFDCDB9616BFC'
p399
S'287D4324E3389C5B97DE9064DC68F7DD'
p400
sS'18499BC54B3FAC31A36B25733F18F140'
p401
S'25C2098427FCDB0F41E2338D6298C5A6'
p402
sS'DE97772CCD5017699DFE2F4E19DFE2B5'
p403
S'04E64383144B960028F8E5E4D2A1494F'
p404
sS'C99CB174F087469FBE04F809714A9CAE'
p405
S'720C1637EC413AA781A963C1E5C4663E'
p406
sS'65B52BCD1C58489CEDAE14DD4D2233B2'
p407
S'334DA336120F5FBEB12A20F00A46F01B'
p408
sS'C4CE7B169392C70FBE22D45C674D33F7'
p409
S'DC35254A03E43A80DD339089CC3A1996'
p410
sS'5026C91CFCE3F7AFB74669E5551EE7AC'
p411
S'287D4324E3389C5B97DE9064DC68F7DD'
p412
sS'478B5A091876F66BED8533B7711B9A00'
p413
S'DB8EFD2CD19AB20E0E0FCF39620C663F'
p414
sS'576BB1F7C95964ED4E7FF0C31DDB4151'
p415
S'287D4324E3389C5B97DE9064DC68F7DD'
p416
sS'7FBD190876151366A3E974BAA12F480E'
p417
S'C3224A6ABD9E19F674B597D4FF81F5A0'
p418
sS'C64C5056E7DB91301BB09176F9EDF990'
p419
S'B6F13CC25FF9B47DAEA8A4FD872B3C65'
p420
sS'6DA951F094BF44131033BA1029CF9568'
p421
S'D11D2BF3659A6F0492D9A93A665CE7E7'
p422
sS'F39172B49BCA040C1C708905EF24CA4C'
p423
S'287D4324E3389C5B97DE9064DC68F7DD'
p424
sS'66B555F25C03ACFE86ACE1B3E9AF5750'
p425
S'287D4324E3389C5B97DE9064DC68F7DD'
p426
sS'F77398338F83252DBAE23ED5064B54D3'
p427
S'DBAB7641FD1733974E9D25CD45A28D09'
p428
sS'44929E5F03A8D58D41BFE2259A39D563'
p429
S'EBE85396E18EE0086B17D3FBCEB3B02D'
p430
sS'5BA50D0521B64F2AC1B22E7F7251968A'
p431
S'287D4324E3389C5B97DE9064DC68F7DD'
p432
sS'F35DF8240643B6D4B4380A281E1FB422'
p433
S'004AAAF9393D0C522863970DFDD61925'
p434
sS'59D030BDDA2478855AD6E1AEBFCDC391'
p435
S'720C1637EC413AA781A963C1E5C4663E'
p436
sS'7AE4E196F29382B7F64366E2F697957F'
p437
S'287D4324E3389C5B97DE9064DC68F7DD'
p438
sS'36B0031593354C00E98AD8519F6D3A2B'
p439
S'287D4324E3389C5B97DE9064DC68F7DD'
p440
sS'E90F9C3559B5202F9DF7DA4CBE23D833'
p441
S'3CE7A429D55439AB85D1913466AF2795'
p442
sS'11138264FF8540B300DEC24D4A4AA7C9'
p443
S'ACFAE27F956AAD09F092CB3187A871D8'
p444
sS'E028F73E083C3B0472DECA21178A8858'
p445
S'287D4324E3389C5B97DE9064DC68F7DD'
p446
sS'A595562CA57709D28A8F63AFB7B1AD4F'
p447
S'AC87D3DBC81416CBEED31F9361FC049B'
p448
sS'52D582B87EA575E4A3E012545D11FF8E'
p449
S'ECC22370678153DE4489ADF407A0E3E3'
p450
sS'07E6E94ADDCBB8DBC407A74FC88FC7FA'
p451
S'287D4324E3389C5B97DE9064DC68F7DD'
p452
sS'35DBEEDF09783FBEA3350F3234A1469B'
p453
S'16A9EBF2BB041356521C1FD5631586B2'
p454
sS'A3F56FC350DA6E6F5C311BB7D9161513'
p455
S'F7F7A19ECC1382C3D226C118BB53F099'
p456
sS'32D388719B8EEBB14FB4142C255C95A7'
p457
S'5615E479B9770BC250EEBB1DC5A27AD9'
p458
sS'C8A6589EE3AA9FEA67E5C8B8ADCD1071'
p459
S'6C18306FBAAC41DE827EA35505CE4497'
p460
sS'095D61769905EBBCAE1F2F82C0815E2B'
p461
S'287D4324E3389C5B97DE9064DC68F7DD'
p462
sS'BB855AC06069D32A9ADBD8A4C6B534E5'
p463
S'287D4324E3389C5B97DE9064DC68F7DD'
p464
sS'AAC04489D7648676160D54BEA92339A9'
p465
S'287D4324E3389C5B97DE9064DC68F7DD'
p466
sS'FCAB922635EAB822B09A231D2455ACA7'
p467
S'72BED7A29646D6E47221E320DE96D36F'
p468
sS'B6ABD8248ECD08D2E09F62A59B97DE55'
p469
S'287D4324E3389C5B97DE9064DC68F7DD'
p470
sS'CA75CEF73C16A17DE58DFF640329120B'
p471
S'8568D947B460515981C858A53A410D98'
p472
sS'B8D9BCA461B099F995DE7A1519CBE736'
p473
S'720C1637EC413AA781A963C1E5C4663E'
p474
sS'483740F40D1CE2177D9A6A462B3303D4'
p475
S'720C1637EC413AA781A963C1E5C4663E'
p476
sS'34675CC946F8B10B4CC9E7BA5ACAB9BA'
p477
S'21BF2850A118BBCAB2E6B3995BE1C02F'
p478
sS'FC86298358AD25709904407CC0FA3B64'
p479
S'720C1637EC413AA781A963C1E5C4663E'
p480
sS'3784F44622BAB96B104E155C74C0F53B'
p481
S'287D4324E3389C5B97DE9064DC68F7DD'
p482
sS'A5224908726B15DE75E2BAC7D27E9ACA'
p483
S'90BB3FECF509EBA4A313690A982AA09B'
p484
sS'CC4DCEC762B7DDEFB053EAE39BCC76C5'
p485
S'91CB068F80B52C97445AC7080FE05637'
p486
sS'ECEC208FFE3F35541F3A046EA0C48697'
p487
S'FB47AB36AA119D6DB6224B718B49B28C'
p488
sS'6AAFB893D5A4C00903E74109678762A0'
p489
S'287D4324E3389C5B97DE9064DC68F7DD'
p490
sS'E4F0FAD1367220DDD2D1D056CC945787'
p491
S'0FB197EF6F793A3DDBE6CD4472E77B63'
p492
sS'C5B3BDB59E7974185DF776744657B96E'
p493
S'720C1637EC413AA781A963C1E5C4663E'
p494
sS'1DCE07FD574C2A854DAC9713E2DD963B'
p495
S'F8FD826E20712855100246234AA16EA9'
p496
sS'A625A4A90D97F8899ADE44FBE90AEF3A'
p497
S'287D4324E3389C5B97DE9064DC68F7DD'
p498
sS'C6ED60387222ADA0653A23D8BDE1EADD'
p499
S'FED40D409A950D42FD79A2925048CF32'
p500
sS'493B063BD84B4A99FFAAB46E43172DD2'
p501
S'A10F03C38EAC7FA4E33C36F62B400171'
p502
sS'2017EF28B0824EE46CCC146B3C9ADB64'
p503
S'720C1637EC413AA781A963C1E5C4663E'
p504
sS'915F530939036A3D91C2571EDE8E2C44'
p505
S'22893E61D51F1EB18B5DA7905CBBC57A'
p506
sS'AEA7379B09461FA82CB34FA364AB06E1'
p507
S'4369CD49D4BB6D00ABA07654B030A95C'
p508
sS'B5F7F4F1EE2E7C4594DFBC1C270DB794'
p509
S'287D4324E3389C5B97DE9064DC68F7DD'
p510
sS'AE82AD8B4289C46A7F98D67A8DFCD885'
p511
S'287D4324E3389C5B97DE9064DC68F7DD'
p512
sS'E7A2AF2559AE60AC1E038E239EE47F92'
p513
S'A3F880D0F35973BE23453276F7A5A043'
p514
sS'7A7CC8246EE21A8414D154415900E802'
p515
S'720C1637EC413AA781A963C1E5C4663E'
p516
sS'55D5CDFD3A07E52643B96467107C7D4C'
p517
S'6611BCDEDAA10DA1FD5B54959683F60F'
p518
sS'2A36DAE1739F984FBD8C982C536DA07D'
p519
S'EDE21C16BC9021ED82EEA75D84960710'
p520
sS'82ABD2C32F629AA6382D4A1A909EA45A'
p521
S'287D4324E3389C5B97DE9064DC68F7DD'
p522
sS'EEB06B060941DD8730FD71B1659581F4'
p523
S'D7959CC48F0352A2369FB4BC13445860'
p524
sS'1EAA4BAC96DEB46827274E0B7319CD9C'
p525
S'720C1637EC413AA781A963C1E5C4663E'
p526
sS'E90A9059C90C3976CED3B83637A2B511'
p527
S'287D4324E3389C5B97DE9064DC68F7DD'
p528
sS'DB38276E200FED09482B0D538C169935'
p529
S'720C1637EC413AA781A963C1E5C4663E'
p530
sS'7A342293FEBF80ED85BDD6984B231FBF'
p531
S'287D4324E3389C5B97DE9064DC68F7DD'
p532
sS'6D29AA6BAD8D558CADBE8E5792C1A651'
p533
S'DB2AD55A8A33C4BA3E2572A0F2D1A258'
p534
sS'DBA00C982584F312585358C968A49AEB'
p535
S'720C1637EC413AA781A963C1E5C4663E'
p536
sS'D843773ACF3BF0EDC160EFB4AE3375E3'
p537
S'B8F690D022F3318BAC60105E12971B8B'
p538
sS'A927C0374E5F959195B2B04BD297C64D'
p539
S'720C1637EC413AA781A963C1E5C4663E'
p540
sS'D605329C4BD1A2CFAD9DE670F85F806F'
p541
S'5D8D5DBBF6B7AD553A60F7491E34B34E'
p542
sS'5C1054F135317D042C3114FDDFAF0E4B'
p543
S'720C1637EC413AA781A963C1E5C4663E'
p544
sS'76FF548C3F885C19E735A1F4E6F14299'
p545
S'CE9AA3EB542494E20405E4C951F78A19'
p546
sS'E30CB7BA5BD592393B790B48B2B331DA'
p547
S'287D4324E3389C5B97DE9064DC68F7DD'
p548
sS'C5C573A289E1FA7B16D4FA33D1A93FF1'
p549
S'287D4324E3389C5B97DE9064DC68F7DD'
p550
sS'80A5D95ED9F048C2875928C035820E97'
p551
S'ADBB8F74BBD76FA4EA0D75ED4999C63D'
p552
sS'D86F84AE1A9C608DD324C46D965C0795'
p553
S'36CEF4615154B689B7841DB9FC3DAAD7'
p554
sS'5E5C02E576E111B96E89AAA25690EB0F'
p555
S'720C1637EC413AA781A963C1E5C4663E'
p556
sS'7BDDB7EE9A7F4D323DCC845E67A53136'
p557
S'C60FE98706B3D87E07DDD1FD7771B581'
p558
sS'16B2AFABFCBA051690785A60D84D5E08'
p559
S'8DE2396B84931BA2B50CA03479B20A69'
p560
sS'7B679F8331BDF5960E32A634C042C9EC'
p561
S'E841F7DEAEBB659B2C25C34F14A3A243'
p562
sS'DEE56FC95297105E6D14B05BA377B412'
p563
S'7EC9B0A4203C4400E89B95740DA9BF50'
p564
sS'EF883E170A6C38BF61670871077F33DD'
p565
S'2E53B580257123F62AE7BE68BBADFCFA'
p566
sS'43797CFEDF967EB11AC27E80B961163F'
p567
S'4ECC4B92EBA8757D70F0B1AA3212470D'
p568
sS'08B250AA0AFEFF3E81A9A14853281B81'
p569
S'287D4324E3389C5B97DE9064DC68F7DD'
p570
sS'D49F3C4B5A482C031625B422AC0B4C8A'
p571
S'720C1637EC413AA781A963C1E5C4663E'
p572
sS'83E65B1D51CFD5944BF3BD72DBFC0F96'
p573
S'720C1637EC413AA781A963C1E5C4663E'
p574
sS'3DC6923B7BAF3640E1774301FC4EBC48'
p575
S'24B335FDEE7F89297E273A0C17D9BB10'
p576
sS'C2E9FC11EC7ADEA6787E32B6F9931931'
p577
S'720C1637EC413AA781A963C1E5C4663E'
p578
sS'A23AE97AFAED5E1A5665977A13D25517'
p579
S'720C1637EC413AA781A963C1E5C4663E'
p580
sS'23A62462F3496077648614720C6EEFE1'
p581
S'542320D1C34A9AA5726A1BC2B8C0CFEC'
p582
sS'5426A48FAFFF95897AB1110AAF8FEC78'
p583
S'720C1637EC413AA781A963C1E5C4663E'
p584
sS'4F1CC00678DB4FEA01A03609410E74F5'
p585
S'8C8D75AF6B9DEA2520A8D44D6AA8BCEC'
p586
sS'7FB806B38BA43472E3D74F8DD2A11DF7'
p587
S'EF89130AFFD0A64E638A3CC411A00038'
p588
sS'A25ED05B8A93A2F8AAECA8A2965D784D'
p589
S'287D4324E3389C5B97DE9064DC68F7DD'
p590
sS'8736D7A19A42513DA3DE3C981724DF43'
p591
S'8F0053C5DB2BFFF158132DCBCD8536C2'
p592
sS'D96D8076C9608AF98A775F5260795C44'
p593
S'720C1637EC413AA781A963C1E5C4663E'
p594
sS'C6ADC4A47221240FFBF096EC24C80B6F'
p595
S'720C1637EC413AA781A963C1E5C4663E'
p596
sS'A5D906282D27883D0BB73CFA8174197A'
p597
S'720C1637EC413AA781A963C1E5C4663E'
p598
sS'D861CA38505E1DB8A81F188ACF973787'
p599
S'BD5EC75562CFB78FA21A110841B8D4BE'
p600
sS'4EFDDB531B9F3A2F51A0DB1C76A4A538'
p601
S'D1B3D2CDE23B1031BA09052E7096FB22'
p602
sS'DA4EE68C17D8B2383B7BA906CAEA8B2B'
p603
S'287D4324E3389C5B97DE9064DC68F7DD'
p604
sS'B7FCD08B4485DFCD0E835612189AD550'
p605
S'437A0DB7B6BD6FA09A5D1C620D0004C9'
p606
sS'C172FF9AAFBD2F6C63F458C903BB8590'
p607
S'00A64A0B7D2FAC8370D5C07702B8AE9C'
p608
sS'B578724C16B84BC421C5786FB3E3A9AC'
p609
S'287D4324E3389C5B97DE9064DC68F7DD'
p610
sS'C7FFA4FCA0B143E38003A893D0A8B6E2'
p611
S'720C1637EC413AA781A963C1E5C4663E'
p612
sS'CEE6207ED3ED845F1897F4378EFDE8A5'
p613
S'9132889767B9A603BF71692962E44230'
p614
sS'48C9F4C24933BF4AA21127B3B993E8A3'
p615
S'C7525EF95B3EBDC2E5F0D35D84B4922B'
p616
sS'0F6285B6FD8728B9305DFB85A58F359E'
p617
S'1D0D191E54FADDED1053C210D9BC56C8'
p618
sS'4378C8C5CBE630DC7550C47722EE0977'
p619
S'287D4324E3389C5B97DE9064DC68F7DD'
p620
sS'02AF8C82484F31DF4132EA516FA54636'
p621
S'2CEE8C0294D52AD792640B5BAE2B2C76'
p622
sS'8E2B74FECA7DBF2D880D630BA35D5797'
p623
S'53F3CD58783931E48BC84384FE54CC1D'
p624
sS'73FE4D5F3E838FD004E13F7A607E3D3E'
p625
S'C9A690C2B529A347A2BF5871AF3ABC9E'
p626
sS'D694F9F8744EACB91C82350D81658645'
p627
S'3A6D85AA795CFBC9E60879FED37E3C6C'
p628
sS'93966206AA2EAE519608B8C453DB5163'
p629
S'287D4324E3389C5B97DE9064DC68F7DD'
p630
sS'648D2157CA3D562E7739ABE7B7CDFD80'
p631
S'720C1637EC413AA781A963C1E5C4663E'
p632
sS'2F24F95F2986DC998AA87AB31214F3BB'
p633
S'779D1A3021788807D85C1E12FC733529'
p634
sS'D6C6EA320F4D8812BE3628B1D985CD5E'
p635
S'87B4F3BEA0DB8B5DEDC3375DBE592D32'
p636
sS'882ACE07FDACFD9F49B0441C540DA131'
p637
S'F2AAC1F9662765F90015422CFE5C8F5C'
p638
sS'B33DFC998C136C8F1CF47CF9764F11FA'
p639
S'287D4324E3389C5B97DE9064DC68F7DD'
p640
sS'18655A931CDDFAE31EED95A181495464'
p641
S'720C1637EC413AA781A963C1E5C4663E'
p642
sS'AB8FC40F98CC592FDBD49B8E5EB8E738'
p643
S'FB7E6C7ECBAA1A5167D200D193A2A28A'
p644
sS'E016C02B88B18297B035F4D355D2AEAD'
p645
S'287D4324E3389C5B97DE9064DC68F7DD'
p646
sS'D2151D947BBB79E5EA197EBFAE685918'
p647
S'2C559AC7B6AD67379A193564695CF5B2'
p648
sS'DE80579633244DBB3EF7A5B252E86AFB'
p649
S'44E207C6DEA90F882C4F4EF28BF04E10'
p650
sS'9D64DF7EB8E4850BA7746B6FD27ECEAB'
p651
S'287D4324E3389C5B97DE9064DC68F7DD'
p652
sS'9E561F5B76EFB02162DB515E00625A7D'
p653
S'604CCEB8F37816D4C8459AB29CBB6214'
p654
sS'E7CE8A3DF594DC1ED06765315551D590'
p655
S'287D4324E3389C5B97DE9064DC68F7DD'
p656
sS'260352519D76ED16C30D58E0D7B8355B'
p657
S'720C1637EC413AA781A963C1E5C4663E'
p658
sS'E1F8FCDE6C318384AAD6394346FCE1DC'
p659
S'720C1637EC413AA781A963C1E5C4663E'
p660
sS'D31F5444F137AC24607C6AD7EAF6C5D4'
p661
S'715A337BA51190ECB628E09A22E779D7'
p662
sS'3521BDEA910C5210282A226B5A9B6E22'
p663
S'720C1637EC413AA781A963C1E5C4663E'
p664
sS'105EC8B131D0DB6C9C5BBF0A08AAA8A2'
p665
S'720C1637EC413AA781A963C1E5C4663E'
p666
sS'F157A194674B5327C7FF6E78A574D062'
p667
S'C9742508C2339C6747092B033A9FDFFB'
p668
sS'839ECA51E2F37E74036D5C1473DFE3A3'
p669
S'720C1637EC413AA781A963C1E5C4663E'
p670
sS'84D4E92BDA425653FE7496F4EBBD6E6E'
p671
S'720C1637EC413AA781A963C1E5C4663E'
p672
sS'4D7C07F7E361FCA885808ACB8410A1C1'
p673
S'DB2AD55A8A33C4BA3E2572A0F2D1A258'
p674
sS'5ACE6375B5AC5C9A79A537486E43E751'
p675
S'7611F9D949410A07B1B4C5A79F848D77'
p676
sS'609FFEE1867A510E2471F6276DE6D7B8'
p677
S'45FD7DB3649B55CFDECAAB4BFF068E17'
p678
sS'A02B991C079BE9AAC3A1BCF488FD3570'
p679
S'128E8E7E6B023AA114E803662C755B3A'
p680
sS'244ECE15C7BA283D04CBE6F68D2C541A'
p681
S'287D4324E3389C5B97DE9064DC68F7DD'
p682
sS'E08676CD9DC07C151CD278DC1ACB8854'
p683
S'287D4324E3389C5B97DE9064DC68F7DD'
p684
sS'8B34EFC0B56D0219440BBFA31A09E979'
p685
S'C894BD14812EB1EF597533AA3C7873B6'
p686
sS'DEBEE1BA50374EC10190462C0DDA20B5'
p687
S'53D4B67FB6895F373F41A6EAEDD6F05C'
p688
sS'A15676427B4A7B1761B49AFE36A568E2'
p689
S'BD102324D63F2A9B16486D3818E975B1'
p690
sS'F1F4C9E87AA870B167355FB8DAC23F49'
p691
S'705D5805AAD321645586BE811869DEE0'
p692
sS'DFF3295A6E3E248D649B7DDA089E522C'
p693
S'84EAC991923BCB2FDEBDDD8A1F1556DF'
p694
sS'8F2A435BE883A04A3667EA80A42101B1'
p695
S'BC0AAB1C2538707BF54193AC868FE1F2'
p696
sS'931A787729F3BD2AA0D664E0FADBA9B7'
p697
S'2E2DF8924509F7DD3F109E98B9E2BBBA'
p698
sS'AC68E7C543BF5605CD563D311BF301A3'
p699
S'287D4324E3389C5B97DE9064DC68F7DD'
p700
sS'FAB7B8DA7AB49D5867CD077BD11DB07D'
p701
S'C5AFCE5228974533D9CB150D4502351C'
p702
sS'0663C974E74BEB5FE1F9F143DB87BE6B'
p703
S'57CD7ABFB28F9E4D973DC16B9923ABA1'
p704
sS'9658261D5E5E6FB2477E1F3424623D12'
p705
S'8EA9B55837C3D0205A9785133D7F712E'
p706
sS'B1DDCC093B5ADF0C7B7217F207183215'
p707
S'B87677CF48B2A127876B67CB3BD128B8'
p708
sS'062EF386CFC7CC45D0D75C9D96E7DF80'
p709
S'287D4324E3389C5B97DE9064DC68F7DD'
p710
sS'635C2E6E6AE3C0AD2C17C4516886BAD8'
p711
S'720C1637EC413AA781A963C1E5C4663E'
p712
sS'1C202CD22F84798349F5B431C302E23C'
p713
S'720C1637EC413AA781A963C1E5C4663E'
p714
sS'F6CF8A193FB5F20DA5C8CB61600B1295'
p715
S'F326ED49C1B69BA32CEB14FB50F84A98'
p716
sS'C0F9792E60C92112109012A774A57A0F'
p717
S'FA900023E1D7CAFEC049E63E6072A79E'
p718
sS'A2CD16785072F2190FB53B11E027D694'
p719
S'287D4324E3389C5B97DE9064DC68F7DD'
p720
sS'8C64D978253EDD4C1EB45D7828C93DB0'
p721
S'287D4324E3389C5B97DE9064DC68F7DD'
p722
sS'BF76F8C3BB40653EA91B5239E5C8AF01'
p723
S'75C6C33B177E47F7816E8EB8CBCF6270'
p724
sS'D1A1ACCACBE42DA4F41ED87CEF41730D'
p725
S'720C1637EC413AA781A963C1E5C4663E'
p726
sS'271EFB9BE9A32D4129F568112351E545'
p727
S'720C1637EC413AA781A963C1E5C4663E'
p728
sS'3ADA4BAEB7E0A7746A15A96CB6DEB05E'
p729
S'511A5F6B3CAF36B6ECCD935926F374C6'
p730
sS'3F0B49F50B30EC05C3320F4031E4A7E0'
p731
S'04100FEE4F2803C8AC7B4F525AC38396'
p732
sS'0C12369B777FF59AC1749D322B82E490'
p733
S'923202B1D7EEAA98E7BB4AA435B10964'
p734
sS'CEFDD9913FDFD958F55BEC137BDCA73E'
p735
S'720C1637EC413AA781A963C1E5C4663E'
p736
sS'5750F2E5D67F77111433DDBE78E940CA'
p737
S'34D2D66D1557AE4978E86A81201813E2'
p738
sS'108C5FED5CCFF02C282B88B22328B5A9'
p739
S'720C1637EC413AA781A963C1E5C4663E'
p740
sS'7FC24B56BC3AC43273C86EFC2A59430D'
p741
S'2CA9E96629148EBB695787E71E350E53'
p742
sS'CC8AF583D37400A17100166EF2F0B523'
p743
S'E314FB2EDC3D3C549E1E53AD08F355A9'
p744
sS'ECB5424B407499E25C24F74DE2D114B4'
p745
S'A52307A1D3AB2CDED1ED11BF981503C5'
p746
sS'8D1516ED6C445BB7CC5A764B4F205DDD'
p747
S'C0892AA3B59FFEB615EC7F2741AD7E2A'
p748
sS'4115F9A9F9CA02C7448C8C0CC5EE99CB'
p749
S'287D4324E3389C5B97DE9064DC68F7DD'
p750
sS'51CB438090D38A2A746BCF24FC06E722'
p751
S'0EED749ECAC90AD5EFE2623EE350A412'
p752
sS'A7C6EF3DF7EF743ED2D40C9264C34036'
p753
S'287D4324E3389C5B97DE9064DC68F7DD'
p754
sS'5D438C853F6520BC64D1F65255D5DAA3'
p755
S'AC656DB9EF564551D3AB96C04C204063'
p756
sS'6976E72665599CD956FF4B41B8843529'
p757
S'6D317271ECA6C24C01F137F2E74EBA7C'
p758
sS'898264D7C9401C5DA11EFD59536118CA'
p759
S'287D4324E3389C5B97DE9064DC68F7DD'
p760
sS'FE15DC1EFE34EA761859348D2792F5D3'
p761
S'287D4324E3389C5B97DE9064DC68F7DD'
p762
sS'F694D985DB76D740C59A96E11B904FBF'
p763
S'349BF81233EDFFCE3154882778466F62'
p764
sS'1901CF71C3BD2BFE4C19A49751706448'
p765
S'287D4324E3389C5B97DE9064DC68F7DD'
p766
sS'17871E24C3405C4BB5ACEB534397D8C8'
p767
S'287D4324E3389C5B97DE9064DC68F7DD'
p768
sS'1285970BD49B1F3ADED83E9DBF9AAE2F'
p769
S'287D4324E3389C5B97DE9064DC68F7DD'
p770
sS'64EC39D27560726E477018A88932B80B'
p771
S'720C1637EC413AA781A963C1E5C4663E'
p772
sS'96AC71DCC1B7336E0DB82572381F2261'
p773
S'287D4324E3389C5B97DE9064DC68F7DD'
p774
sS'44385669871550C46B8A6FD06243BEA2'
p775
S'720C1637EC413AA781A963C1E5C4663E'
p776
sS'4F5D59D39F41CE8458AD9072144B4439'
p777
S'E475E078491EBEDFAFB867676378EC5D'
p778
sS'DDEBFA3B449EE54015AB3C4529205C0C'
p779
S'287D4324E3389C5B97DE9064DC68F7DD'
p780
sS'17A01C8F57D77F0E440BDF1069E0CE23'
p781
S'287D4324E3389C5B97DE9064DC68F7DD'
p782
sS'7C7F410019321EB74BC7B32BA9C2D809'
p783
S'287D4324E3389C5B97DE9064DC68F7DD'
p784
sS'758634A9149E38AE517F78A1E404CB62'
p785
S'3A7EDC809AA7B465DB35F06F697400D3'
p786
sS'38572DBA1BCCD1B0AA2DF8626E995348'
p787
S'A404E09A4520F6B9BBFB72D6DC3514E6'
p788
sS'B051FCF759F5830BF7FFC47B18739917'
p789
S'A4C3FF44910C2D4FF8D055F12CF7401A'
p790
sS'96717A8C3C2A5684798CBFE2CEE3FCE3'
p791
S'AE0A0045E3691571CF5B5A555B9F60F0'
p792
sS'EFE183529DC42DA6DFB34F476E61DE13'
p793
S'BC586C5762F44BD33B4E343B95B91C5D'
p794
sS'2C0AF3700691B548470EF17364D23417'
p795
S'287D4324E3389C5B97DE9064DC68F7DD'
p796
sS'EC14A0D2B8F84A39A779E052F08F1160'
p797
S'4571E434260FC7D29044C479B733076A'
p798
sS'0516B5DAA7739ADD2FE4821CBE8A0AF6'
p799
S'720C1637EC413AA781A963C1E5C4663E'
p800
sS'A107BC450E38DC5373D0F3C1BAC51645'
p801
S'B5B40BBA3FFD83B3F333A75CA0AADE86'
p802
sS'B98773BDE8265C804A2EA15FFB82AAD4'
p803
S'287D4324E3389C5B97DE9064DC68F7DD'
p804
sS'032B583D91EC83CDCBDEC8728CC7E302'
p805
S'410571D01FCB681CF6378CB9E8B97D50'
p806
sS'95761F92C8F78E3406881458CE2883F2'
p807
S'7C36498F9CDC065D1C8B6ABBA24AEDF0'
p808
sS'B947EBDD705C462E5BD83B4664344A97'
p809
S'09AD154CD439820A51BA23C01617C96D'
p810
sS'0520678FB68F7FEE3DA3B796C5A1BCCD'
p811
S'CE590D4818192FD95666C66919399376'
p812
sS'CDA777E87A6077C0E3BA46E8D644CD1A'
p813
S'287D4324E3389C5B97DE9064DC68F7DD'
p814
sS'C769FAE7B5A1E951AF4FF51E19BB3EB1'
p815
S'287D4324E3389C5B97DE9064DC68F7DD'
p816
sS'25D1689024DB5F6A2855F370B042153F'
p817
S'720C1637EC413AA781A963C1E5C4663E'
p818
sS'50544F4C60196802883EC06FE8CFF744'
p819
S'720C1637EC413AA781A963C1E5C4663E'
p820
sS'3E341217368EE01102AEB6095C29ADAA'
p821
S'720C1637EC413AA781A963C1E5C4663E'
p822
sS'CEC490B099BC823635710BA547EB3A08'
p823
S'EA0829169217A07648A86B65100E74FB'
p824
sS'C2565CC09C99B795A9FF2F105531A332'
p825
S'8E3F184226C614B55794BC5F347F3431'
p826
sS'5B48DDDA004EB9384AF3A48AAA5C4C9D'
p827
S'9BF356B4F53EB5AF08929FE4A2F56443'
p828
sS'83A2CCE814602F7555CCB662558AFD6E'
p829
S'B16FF29EF6281314357CE76FDA6E6596'
p830
sS'787F1751E5D4F59EC2E7EA2A1CCEF861'
p831
S'EE211B7C3CBABC0BE6D7811702DD5D6C'
p832
sS'60DECCE3F2D1D070C1CB71D83CE3BA5E'
p833
S'AC6C1AFECFBFA7079AEEC119ED78C2EE'
p834
sS'2206841A90AB3E01B9E33A94E83BA162'
p835
S'367012F8159648C6402A4435B4560BCB'
p836
sS'7242B825AFA65C49ED4F5D9BD28D28C8'
p837
S'720C1637EC413AA781A963C1E5C4663E'
p838
sS'99B02C9C521E1A5FB86D138B4624D270'
p839
S'287D4324E3389C5B97DE9064DC68F7DD'
p840
sS'757FBEE045F8283C7EFB6917352111D7'
p841
S'287D4324E3389C5B97DE9064DC68F7DD'
p842
sS'4C9145E37EBB3AB2F370EDF74D680AD7'
p843
S'FA3A219A2DF98FBEFF73A6A9DDF13F42'
p844
sS'E7DC1F7D18F722193EAD950B461B60F9'
p845
S'720C1637EC413AA781A963C1E5C4663E'
p846
sS'A537E761840CBED43FED847B870A903B'
p847
S'E72BE085987AD1FF30B7497451CA6FBC'
p848
sS'8A16F617300023BA2597D982EBDAC773'
p849
S'44E207C6DEA90F882C4F4EF28BF04E10'
p850
sS'F46EEA08F41FA27DD28B51B6D8CA0CC8'
p851
S'287D4324E3389C5B97DE9064DC68F7DD'
p852
sS'0FF9BE717B8F197934433F5E3ABAF15F'
p853
S'287D4324E3389C5B97DE9064DC68F7DD'
p854
sS'73D6C8E6237B75A6F481A5B08885FBB3'
p855
S'DB2AD55A8A33C4BA3E2572A0F2D1A258'
p856
sS'FBB048F5802E40A79977E7C704A8705C'
p857
S'287D4324E3389C5B97DE9064DC68F7DD'
p858
sS'5EC73D5026885A09DAF6BF9EE6D9608B'
p859
S'720C1637EC413AA781A963C1E5C4663E'
p860
sS'C9260A494EA05BA52FE52827A9592BCD'
p861
S'EE4FF262BF57C418746D7E2F423B58CC'
p862
sS'77A30C003FA5F178B095ADCEFECAA10B'
p863
S'58876747A1622070A60C5F84EB618F22'
p864
sS'8336F311973C605676CF117F36389E4D'
p865
S'4ECC4B92EBA8757D70F0B1AA3212470D'
p866
sS'C5270ED66305724E8DE28D677621E176'
p867
S'6FD1EDD5A157627929DFBE0CD90D754E'
p868
sS'77DDFB6C2D3E0E3BBD4F4A4575A4C72F'
p869
S'720C1637EC413AA781A963C1E5C4663E'
p870
sS'02DC1FCE408C95D66DDAE949E139217E'
p871
S'358317DD74FC3A5BA6E09B9683E75733'
p872
sS'13D00BA6FB99BD1DF0EFC22936F88FB9'
p873
S'C06BDAC8E89DD6EFA6EC5F485026F552'
p874
sS'CF8C03E2E3EB82784E39A08BC468FBC2'
p875
S'3C57BF5CBD6F7C8BC58FA6417D216639'
p876
sS'B3E51B77213934414ADE9367BB4449D5'
p877
S'720C1637EC413AA781A963C1E5C4663E'
p878
sS'FD63E0209BE0E06F4887E273141304E1'
p879
S'287D4324E3389C5B97DE9064DC68F7DD'
p880
sS'A41D731434553F0290385C6BF0493A7D'
p881
S'2D46200A7B787A1BE928DE81AC927F37'
p882
sS'35A49461E5A1C8C18DDD6DBA3579DEC9'
p883
S'92297A4345A106F5F163AFEFBF6B95AC'
p884
sS'628FBE5A2C60232C2D10EE3EA693FB41'
p885
S'CA19A377661E7858D6DD376BEECF09AD'
p886
sS'344FF568B625592CEC85B5719D7D6E0C'
p887
S'720C1637EC413AA781A963C1E5C4663E'
p888
sS'8069DCE0E53DDFD1D39567471EBF30AD'
p889
S'0DC803055DA00DCBE18D041B99DE98C2'
p890
sS'F49A2E7735BEA26D6DEEA53E1E206775'
p891
S'AF034FE8DCA7E5147DAAA26E3918BE6D'
p892
sS'6F0A72DD83DD77DFDC28CD449AFD07F7'
p893
S'BF4812CBB238437C13FDC0336C559CC4'
p894
sS'515D8975F5E6C58955994F288C8354D2'
p895
S'720C1637EC413AA781A963C1E5C4663E'
p896
sS'5FCCB3919C5943956B1E2F73A9BFBA2F'
p897
S'720C1637EC413AA781A963C1E5C4663E'
p898
sS'B4FDC29DFEB6EE45DC496D9C1A43B9A7'
p899
S'6BA56E4A38BEA20AEAD1AE3A60CF5F21'
p900
sS'ED5F648E5CE85B37EC2A79874BBCBE55'
p901
S'E05FB00FAF6AEC7AF6A57619C368F7D1'
p902
sS'57E842690DF305B668A261613E70E4EA'
p903
S'287D4324E3389C5B97DE9064DC68F7DD'
p904
sS'250999FC762666F3B7748F98C122F6F3'
p905
S'287D4324E3389C5B97DE9064DC68F7DD'
p906
sS'0142C9EB9675976B4538DD59702D2B5A'
p907
S'2BCEBD1E7D3367927EBD42067E54CAD7'
p908
sS'1105FED2D5FC61CD95BF367D87E3B402'
p909
S'A1238133E1D8E67476E5D264A261CA99'
p910
sS'9C698CC3C94B1EA4E86D5AE3097E53C5'
p911
S'287D4324E3389C5B97DE9064DC68F7DD'
p912
sS'49C7F6C22DBCB0D548915D11A8A14E81'
p913
S'720C1637EC413AA781A963C1E5C4663E'
p914
sS'8765E89F7F743AF589513BF4FCCDBDB6'
p915
S'287D4324E3389C5B97DE9064DC68F7DD'
p916
sS'98D6C681F61E1697B06686C6EA55D2AF'
p917
S'E746A8C4A3153133EE309DFA22B4C2CD'
p918
sS'85123C652F2881697F7B926D6A605758'
p919
S'720C1637EC413AA781A963C1E5C4663E'
p920
sS'5E3ACF888012DDF15986B956A6B419A1'
p921
S'287D4324E3389C5B97DE9064DC68F7DD'
p922
sS'51813358BA12A77BEFF1B2D76E2209A9'
p923
S'AC5728527794B088E835AD7FCB514909'
p924
sS'9A7ADEB9AF24ADBD6EC55150BF8E37AF'
p925
S'287D4324E3389C5B97DE9064DC68F7DD'
p926
sS'D158ACD53F0255D9BE71CC2D483DDA40'
p927
S'720C1637EC413AA781A963C1E5C4663E'
p928
sS'33310241AF3566ADE7523F7015222E63'
p929
S'287D4324E3389C5B97DE9064DC68F7DD'
p930
sS'9C644CEE5FB99AED15A6612BA92EAEEA'
p931
S'74CD99F821C404E3E21F248D149F8C45'
p932
sS'FA08239CBF43BC8895EB0A9186A386DF'
p933
S'F0EDD2CA8EA3FB89071D2809877EBB1C'
p934
sS'06F39380B7F023CF6A97F80B7198EB28'
p935
S'A920F7D9E53AE72EE49FB92D68E9AC13'
p936
sS'76E6CBE97780FE789186D1F2962FA020'
p937
S'720C1637EC413AA781A963C1E5C4663E'
p938
sS'9FC0575F646C34D45ECA5EF3B78C587E'
p939
S'FACA97B21D1CC5DA791633B8EB9BD28A'
p940
sS'4910494758D7232A41E42EC1DE6DABA2'
p941
S'287D4324E3389C5B97DE9064DC68F7DD'
p942
sS'3D96A979E67601892DF182D92E7200F2'
p943
S'720C1637EC413AA781A963C1E5C4663E'
p944
sS'DDE4E32B5F894CC60582562D0133E2DF'
p945
S'720C1637EC413AA781A963C1E5C4663E'
p946
sS'BD9E0970029B5E1EE0F75FEC789E890F'
p947
S'287D4324E3389C5B97DE9064DC68F7DD'
p948
sS'4D3A8FD632A23D5AFE3A5811A06BE1C2'
p949
S'287D4324E3389C5B97DE9064DC68F7DD'
p950
sS'42F0C2BB970AAF12BFE0D539F41378B5'
p951
S'D71D2DEE514E417D63579C309BC07C52'
p952
sS'427C9C123ADFB68E830728F9DC94325B'
p953
S'2E0BEA8C5B30887CDEE8D506F59B894A'
p954
sS'7EF9E476EFD25EB6B3940EBC3A7BC27C'
p955
S'287D4324E3389C5B97DE9064DC68F7DD'
p956
sS'2463FF347AE988422BCA2ABE4B99A759'
p957
S'720C1637EC413AA781A963C1E5C4663E'
p958
sS'ED31193B832DCF05D3FFA8A0481E8F42'
p959
S'287D4324E3389C5B97DE9064DC68F7DD'
p960
sS'4DAA4DA51219C9FE0E30DBBFB073A150'
p961
S'720C1637EC413AA781A963C1E5C4663E'
p962
sS'06C0BF95E00FEBBB2CC97CFE4DCF9CD3'
p963
S'720C1637EC413AA781A963C1E5C4663E'
p964
sS'1851C7447EAE2680AD3A5C61B92F5C1C'
p965
S'CABA59F7DE595C3B0D67284DFD07A72B'
p966
sS'FB328142E0A8961DFEB70B5D12886B7F'
p967
S'584DFD87E3EAC493F377D4491CFFC3C8'
p968
sS'77191EF8E8F08FEC36D2BCE26CC27F6D'
p969
S'41C6CED78F9CF966FD2C2B6C7A6562FB'
p970
sS'008C4A54356A62A3E57008A6A4ABD164'
p971
S'287D4324E3389C5B97DE9064DC68F7DD'
p972
sS'4BFBACDB6AB9C123CF351F8A04C58CF1'
p973
S'26CFEACE140D70D0ACF2DC45AAEA73A1'
p974
sS'FE7FC8590BD3B9014A3C17B8BD7317E1'
p975
S'287D4324E3389C5B97DE9064DC68F7DD'
p976
sS'A56F3CCB6C47D683C2BCCD8EBC51CD2F'
p977
S'287D4324E3389C5B97DE9064DC68F7DD'
p978
sS'7D4E60AFEF949DE7EE8D629A9086F54C'
p979
S'9F62788A640767B5086E8470E1166391'
p980
sS'1A5741F66836DA451BE5A8A2A570749B'
p981
S'0FB197EF6F793A3DDBE6CD4472E77B63'
p982
sS'03D9C12B72B8FF495D185FE5C473741E'
p983
S'AA13D91DA0D51B0B7609928F82CE2393'
p984
sS'2C187FDC2B77720B2410D8D4C97D0BC5'
p985
S'287D4324E3389C5B97DE9064DC68F7DD'
p986
sS'85090B83458426A74C8728ADBD375C19'
p987
S'287D4324E3389C5B97DE9064DC68F7DD'
p988
sS'F5B11822DAFBF64583488914C1E469EC'
p989
S'F7DB9E118E9E252B10F6DB7FA0C8C104'
p990
sS'C184090CD8035BB526DFEBF054551D86'
p991
S'720C1637EC413AA781A963C1E5C4663E'
p992
sS'13FA89FC135DC27065728C1A3E9A2901'
p993
S'287D4324E3389C5B97DE9064DC68F7DD'
p994
sS'BF1F3885522C53D740F9202D4CAF4ADB'
p995
S'2B63CC2B813CFDD053F47507A5F51FBF'
p996
sS'C73509ACC312CF82DFB7501DA70539BD'
p997
S'287D4324E3389C5B97DE9064DC68F7DD'
p998
sS'8D7475AF9D1F8F963AFB1BE4DC4AEB8F'
p999
S'3AED24592DAB3551E98952E12737F0B0'
p1000
sS'0DA595D4574DF3C7AA810A78C4FC60CC'
p1001
S'B16FF29EF6281314357CE76FDA6E6596'
p1002
sS'DA6EB90C0C262A464F86E347D18AA27F'
p1003
S'548B8D7A4382CDF58ED005BE75B31157'
p1004
sS'EE13C24E576F58971CD33A308CB0103D'
p1005
S'A2EB88E317A9DD5D50869CFB77B2209C'
p1006
sS'37C506DE23DD04745FA7C58E2A5BFCE6'
p1007
S'720C1637EC413AA781A963C1E5C4663E'
p1008
sS'933B78477D4C2B5219DFEF5F47D05781'
p1009
S'720C1637EC413AA781A963C1E5C4663E'
p1010
sS'4F83AB512FFBB843C5EF4F56E92E9D19'
p1011
S'720C1637EC413AA781A963C1E5C4663E'
p1012
sS'A6390DE5F55595669AE565D9033E6F58'
p1013
S'720C1637EC413AA781A963C1E5C4663E'
p1014
sS'C46B780DC549572AC67A5762952C81E7'
p1015
S'CBD7A0119F9030C5EBA9FAE7C711EC1D'
p1016
sS'7BD7D471D3133888077C6AC6B9640AE8'
p1017
S'48352C504A338F85134577D6162D2B46'
p1018
sS'DA53AF171B45DFC2CBAAAD49736B5996'
p1019
S'287D4324E3389C5B97DE9064DC68F7DD'
p1020
sS'E8BBA314D3FA526E9D99B5F416F825F1'
p1021
S'44E207C6DEA90F882C4F4EF28BF04E10'
p1022
sS'040F80A8C24D07F7219C861CA82D785D'
p1023
S'C3B5EE97FACDFB9FF78F9D319861EE75'
p1024
sS'A93EB94D768F2E494A2C065322FF284A'
p1025
S'287D4324E3389C5B97DE9064DC68F7DD'
p1026
sS'78843274257DED46EB22EF8CA3739095'
p1027
S'287D4324E3389C5B97DE9064DC68F7DD'
p1028
sS'015DD1B5C746C8384B5FA889BB778ED6'
p1029
S'4161DE85AF634F4089F2436DD2A2D737'
p1030
sS'C60A8236C1BE822D87E78DCD9C25D4EC'
p1031
S'B97837690E771FD605D4A02FF3890DB8'
p1032
sS'06E192324B960C8655A790723A7ACBA9'
p1033
S'058E5218F876F0A814BF98C39CF74FD6'
p1034
sS'F28BAAB35288B6C8AF55D6498360A13A'
p1035
S'970F8BD4E9FAC6E17C69D5F1CDB2D5B4'
p1036
sS'B483D94E6BEF7E19F7C8C77F444EBBFF'
p1037
S'827C149C550C386177B859384D3F401B'
p1038
sS'E12EDD285AF1ABD95E63E929607713ED'
p1039
S'1CCFF478808259095140FBEFAE20C13D'
p1040
sS'07BE6CB1A83DE806E83284D68A8790D6'
p1041
S'4452ABAB7493788F1198FC7C2439370A'
p1042
sS'4FE131613926502BB9B23FD2B56A5791'
p1043
S'7F9CC41A025D693EBC10534B9B20177E'
p1044
sS'5B2DA2085D343E4E1F15A563EBEE6CCD'
p1045
S'5B1F4C1D2F305437B0CFF3F298FDEFA8'
p1046
sS'58F503437AEED6B6A9E728B9033ACE25'
p1047
S'F3CE14614481D1E12B02D3B1A9401577'
p1048
sS'48D29D6669D46A2055087FA68ED1700A'
p1049
S'2A424D24C3D6A36C3E463EAE8606F5D2'
p1050
sS'BE1C4519368E75EE82916EB94A1155FF'
p1051
S'ED75B5AB3725A06816773EFCF2B779F8'
p1052
sS'06BB4C08F850850C968C4BD892981E05'
p1053
S'92C39EBE86691EE191CFC0AED96613D6'
p1054
sS'720A8A3AB2C65593F4468C88B1468D0D'
p1055
S'287D4324E3389C5B97DE9064DC68F7DD'
p1056
sS'03B8FDB2329F63B47D935866F17FA763'
p1057
S'720C1637EC413AA781A963C1E5C4663E'
p1058
sS'06D58E288888D5B679D78937BDBB75D1'
p1059
S'D1ECF06A5FDB1A3DB659180EDB716DC8'
p1060
sS'32C96148F19B40BE5437948A3A19727B'
p1061
S'29ED5AB661E08CA776E51B55ACA569C8'
p1062
sS'C6E04108020D38781E9D7FCB31D55DAE'
p1063
S'287D4324E3389C5B97DE9064DC68F7DD'
p1064
sS'7B801BDC587A51E636733C2964DA0526'
p1065
S'720C1637EC413AA781A963C1E5C4663E'
p1066
sS'3A7524CA6481B451ECA132172FFBBF18'
p1067
S'720C1637EC413AA781A963C1E5C4663E'
p1068
sS'B368E405C42F014E066640D99AB2690B'
p1069
S'287D4324E3389C5B97DE9064DC68F7DD'
p1070
sS'EEB57B26825A7F9B43DB32523DFAA5F3'
p1071
S'55B0F20B3336C789F79093A45301ADD5'
p1072
sS'640A9BAE2DAB8BD40EF752326BD8E869'
p1073
S'F1F51663FDEE524B003ED92CE608C8D1'
p1074
sS'5DF1ABC03C7028AC5353E118EC98434D'
p1075
S'3112E39999FD97E4ED5BE917DB7CD428'
p1076
sS'ACC3890B78B2B436FDBFE01942765D1E'
p1077
S'F3F71E281D583AD5F9FABCA2B3310DB3'
p1078
sS'E88D9DD7A6BB7A61AA5353C66D19F0CD'
p1079
S'720C1637EC413AA781A963C1E5C4663E'
p1080
sS'16968EED09AF908B28F5E86E83D6CBB7'
p1081
S'287D4324E3389C5B97DE9064DC68F7DD'
p1082
sS'4D8DFD44E763F12A72077F7629ED132B'
p1083
S'720C1637EC413AA781A963C1E5C4663E'
p1084
sS'A063CB70BCA6EE694A920FE6A7E65E0A'
p1085
S'E606A7B986C9FB7B428A56170FAF9380'
p1086
sS'A2213A568CD4A54F5B3D02B27C816BDD'
p1087
S'0AC5789E6BD8A99D629B3684DB0AD75A'
p1088
sS'1C212BAE69114F71017F6163E039C6FB'
p1089
S'720C1637EC413AA781A963C1E5C4663E'
p1090
sS'5723AE93CAEB82F66D57C5AA69FC0085'
p1091
S'720C1637EC413AA781A963C1E5C4663E'
p1092
sS'B07BE6C69CDD4F0EC155D74B34CCBA32'
p1093
S'720C1637EC413AA781A963C1E5C4663E'
p1094
sS'03EC4BDFFF0435CDB03CE63499541E16'
p1095
S'287D4324E3389C5B97DE9064DC68F7DD'
p1096
sS'D08226D10F194C7CCF253C76F016C0FF'
p1097
S'287D4324E3389C5B97DE9064DC68F7DD'
p1098
sS'27A8C80694C91098583E5535361846AD'
p1099
S'720C1637EC413AA781A963C1E5C4663E'
p1100
sS'A1BE36D17BC4029D56280ABDEE32E140'
p1101
S'BDD811ADB584DF6BC69B58EE4246DAFC'
p1102
sS'3E3362C6DCE13CE0D664DB1533139CD2'
p1103
S'B36C0988FE84A46C0F57953EDE543B84'
p1104
sS'5CA4624AF359450A09A9FAF6C08559A6'
p1105
S'287D4324E3389C5B97DE9064DC68F7DD'
p1106
sS'F4E3B5A6341E15C7E6DCF88B961C5A29'
p1107
S'1D1B951B9EAF9FB4DC3994CB7F4E1E29'
p1108
sS'6566C856C6F06F21B674BFBE27DC3860'
p1109
S'720C1637EC413AA781A963C1E5C4663E'
p1110
sS'9E234A0D285134A7254DC99F38985BFC'
p1111
S'DD9474FFF80A2E1DAFA78997BDC736C4'
p1112
sS'A0797844C8503A2884B22B5E990BE47C'
p1113
S'4512E6094A667FE37C5B92894FB21D74'
p1114
sS'DAECC449E2798FF3C755580BF658477B'
p1115
S'287D4324E3389C5B97DE9064DC68F7DD'
p1116
sS'BAA2E868D8D1373E4318788EB040CB8B'
p1117
S'287D4324E3389C5B97DE9064DC68F7DD'
p1118
sS'FED1C35D939AB263AF57A9C418A1A431'
p1119
S'B4924707A09C5BBE4752FCB41D685819'
p1120
sS'A467C685D6BB77174C4A1A03DF066B6D'
p1121
S'F968F07885A56D034392BE17AEAF2CB2'
p1122
sS'7D5802E2D653C1B82647D6BC45F7FD76'
p1123
S'6F5DEFE0FB868A9F363DB73D6361967E'
p1124
sS'8B8EEA48BA0BF312610E546C2E1D9717'
p1125
S'CAF4654D12FB028EAAC1AAE849D1CE5D'
p1126
sS'17730D7A4F0E570F3B1D5E27D5877A93'
p1127
S'70E28E711F422DD6C0C638CDD89C29E3'
p1128
sS'5B828C3C6BFCBB25E6796E1A81B3CB51'
p1129
S'287D4324E3389C5B97DE9064DC68F7DD'
p1130
sS'49421441BDBF6419F4A47C281C73E528'
p1131
S'287D4324E3389C5B97DE9064DC68F7DD'
p1132
sS'B1C59B091B7101E3F53D470AF4C7299B'
p1133
S'3723F3D81004F384C7A83CA4221D03B5'
p1134
sS'0B957CC8D83BD369653DB0466503A577'
p1135
S'287D4324E3389C5B97DE9064DC68F7DD'
p1136
sS'A92829881C7584E3D10032A808D442A0'
p1137
S'FA4BDC320861C03548A3CC67C301C8B7'
p1138
sS'8436D8C1DECECE73F31187C9D68E2481'
p1139
S'F555167B277AEE2155094FB72AD58785'
p1140
sS'030F288A5CA4E859CC085F8AF1EB5A5B'
p1141
S'720C1637EC413AA781A963C1E5C4663E'
p1142
sS'BC9F0945C14524CAC5B42D95EB836607'
p1143
S'720C1637EC413AA781A963C1E5C4663E'
p1144
sS'7899D6AC236FB53E3DB4A30AA28EE369'
p1145
S'287D4324E3389C5B97DE9064DC68F7DD'
p1146
sS'2F50F7AE17EF233C72AD15DB66647BB2'
p1147
S'2785B58949F44DB4922CED5BBEFE8E8F'
p1148
sS'8619C1B76E135A634824B96F99F34276'
p1149
S'287D4324E3389C5B97DE9064DC68F7DD'
p1150
sS'22F35A1AC62D66B7E0E830DF977BEF2A'
p1151
S'287D4324E3389C5B97DE9064DC68F7DD'
p1152
sS'FD0E80D56AED61B565E7EF9D2B851D05'
p1153
S'287D4324E3389C5B97DE9064DC68F7DD'
p1154
sS'0EB24D8DB51295C86E0F2A9BFE4844A0'
p1155
S'720C1637EC413AA781A963C1E5C4663E'
p1156
sS'13B32E07BCCB36F7533E64C7FFA33F2E'
p1157
S'4CA1A0DCB02E717E4979F047459313DA'
p1158
sS'F4385C308F4E1141D8C47684741D1731'
p1159
S'720C1637EC413AA781A963C1E5C4663E'
p1160
sS'5911BB3B4C65AB009A759D82D4BF9BCD'
p1161
S'720C1637EC413AA781A963C1E5C4663E'
p1162
sS'C79F6F00593B10ECB005D7C1111B0BB2'
p1163
S'287D4324E3389C5B97DE9064DC68F7DD'
p1164
sS'1C702FCA9D05D31387500032F485D6A0'
p1165
S'7EC9B0A4203C4400E89B95740DA9BF50'
p1166
sS'96197C95A3A24049430F63300E311E76'
p1167
S'287D4324E3389C5B97DE9064DC68F7DD'
p1168
sS'82AD8F5DF01C04C917FE84158B471024'
p1169
S'720C1637EC413AA781A963C1E5C4663E'
p1170
sS'B996C166B780DE477E4598462875A180'
p1171
S'720C1637EC413AA781A963C1E5C4663E'
p1172
sS'074FFCF324EE66CD1ED4B1BB597E87FD'
p1173
S'720C1637EC413AA781A963C1E5C4663E'
p1174
sS'A28E99EEED311162DE7534ACC9BED912'
p1175
S'A7CAFF3413FC954EC67DF3C6FC9EE592'
p1176
sS'43334A4DBCF50F7F8B456479DE25E758'
p1177
S'287D4324E3389C5B97DE9064DC68F7DD'
p1178
sS'01131B6325F532F64DA6F900E1936C14'
p1179
S'AD0758C64F20C910B6AB10F9D4474582'
p1180
sS'0DC061415F01E39C4C06F5A62BCBA940'
p1181
S'287D4324E3389C5B97DE9064DC68F7DD'
p1182
sS'947935F19381148BDF4EB6B1C28BB90A'
p1183
S'BFDF91B87E6626B2B113E8A9BF98C718'
p1184
sS'8C49D51BF07F2B5AB45BED4CE5B661CB'
p1185
S'5BF856F2F0E17D0CE573363A2FA16034'
p1186
sS'F94E32B8EDCE16A3687BE15182F6865E'
p1187
S'7DF6F4E7864D33AD27DDE08B9B7B33FB'
p1188
sS'27E30E695EB9BC8272E62ABA3AA54954'
p1189
S'BA440B1EEFB0B87A6D16C3AFF4E93C32'
p1190
sS'BF5E6C38412D13B7D45D5CEC4809328C'
p1191
S'9706CB411E7A9957EA2720C4F5D7F911'
p1192
sS'41010C56BC92A18EDB6017E2D0F3DEF6'
p1193
S'720C1637EC413AA781A963C1E5C4663E'
p1194
sS'CAA62BB9EAE9CC731E74379D434BF577'
p1195
S'720C1637EC413AA781A963C1E5C4663E'
p1196
sS'04987E4C627CFF26523CAE0FC47B6DC7'
p1197
S'720C1637EC413AA781A963C1E5C4663E'
p1198
sS'FCF0192D251A610869A34BA4B6ABD135'
p1199
S'287D4324E3389C5B97DE9064DC68F7DD'
p1200
sS'911C313B99552218FDBCFDE7388419F2'
p1201
S'D37F79E2732D5B1474305F5ED43A4B0E'
p1202
sS'432FE691EA9B0F19C5B0F1CE03149A85'
p1203
S'2DF5D90C032B9BADB2ECF90AD970FD9C'
p1204
sS'3EF4383B5E3DDCE85C8026E8F91F745C'
p1205
S'DA63A01DABE7A1FDDF4EBD2081ED957D'
p1206
sS'2818A4D1BD6ADC427A5B8B0E41A038B2'
p1207
S'FD39CA3D6B411ADDB9178FAB7BA4EAD2'
p1208
sS'D164E67D860E149D50AD643DCC827B89'
p1209
S'A0AA70E78ED6C4DB9BB2FA8B98BD1F47'
p1210
sS'EA56A65F3320A3BE7613A10E80EA553F'
p1211
S'86C49EE55FAD49DDB0F5954379A74034'
p1212
sS'256CD60A53B86A9DC88A18182891DE7B'
p1213
S'8D96E7DCD51732DB4141AB8130B19C79'
p1214
sS'21B569A4C364248B5EE845D1FF48C798'
p1215
S'720C1637EC413AA781A963C1E5C4663E'
p1216
sS'190EE48A57F35C077A00EA55F9DAC861'
p1217
S'5FA8C50588AA7E2E3401B889AE9EB6D3'
p1218
sS'CEE419331568FCF28077037FBC026C22'
p1219
S'48352C504A338F85134577D6162D2B46'
p1220
sS'2B5FEEC79C45D0CEF8D950C5A35DC30B'
p1221
S'287D4324E3389C5B97DE9064DC68F7DD'
p1222
sS'344561DF2E294E24E16C80A1D87CC8CB'
p1223
S'720C1637EC413AA781A963C1E5C4663E'
p1224
sS'82AAF740E9F387F239ABA02BDED39CCD'
p1225
S'287D4324E3389C5B97DE9064DC68F7DD'
p1226
sS'B8DFA6B9DC81ADAD92BFD1CABD3ECEA8'
p1227
S'DFC33B4DBE0D1FA50ECA3C436641C00F'
p1228
sS'0491FB188E954820129AF6CDD24A2575'
p1229
S'A0C93FBEFB61C6F669887744E6A8465C'
p1230
sS'85E902E8AD31ED344C7FBA09427F7145'
p1231
S'5F75EAFBBD95BE5BF67D785EA5FF35AA'
p1232
sS'9ADB51AB24D4106C6B053A54A99683E8'
p1233
S'30A967E5040CACAB21D9819CD571A249'
p1234
sS'E840928FAE2A5B07AEBDFD7E56DC5F57'
p1235
S'2958653245A452DEEB73AF49C264250F'
p1236
sS'50160C7636A29752997F668D414DDA3B'
p1237
S'287D4324E3389C5B97DE9064DC68F7DD'
p1238
sS'DB76AC1FE79F36B5EDCBBACBE60A8859'
p1239
S'287D4324E3389C5B97DE9064DC68F7DD'
p1240
sS'DA9BB4A37383EFEA0A7A91AFF269CDAE'
p1241
S'4A0EE013A56B9AAB6260871634C5D775'
p1242
sS'E3099F1DF558D0FDC41CC671F77C01AB'
p1243
S'720C1637EC413AA781A963C1E5C4663E'
p1244
sS'BE9B57F1B47CC7EBCFCF0884839FDF04'
p1245
S'287D4324E3389C5B97DE9064DC68F7DD'
p1246
sS'D327AF151FCD60FEC51AE090E97B7411'
p1247
S'D9FF4999EFE92DF841AC609DBA1D1616'
p1248
sS'A0F6181EE2B877353B7AD46490195556'
p1249
S'2AECD3F2E6F3DF72E78217BB31EE33DD'
p1250
sS'4CC32684B18F97E031FCD1D5066A7E86'
p1251
S'720C1637EC413AA781A963C1E5C4663E'
p1252
sS'244E0C39249698995768C83CAAAAA000'
p1253
S'287D4324E3389C5B97DE9064DC68F7DD'
p1254
sS'FF59009C44D62315319B228F22429074'
p1255
S'5D17E785E322B5EF8CA814B434DD46EC'
p1256
sS'EB8997273FEC2047CE674EDB21172832'
p1257
S'287D4324E3389C5B97DE9064DC68F7DD'
p1258
sS'25E94673814255E7751D4740422F938B'
p1259
S'76F8AD97029A9F2C016A6A9DB1220C33'
p1260
sS'77BBC0DD800DB5D212D7CE514970CB25'
p1261
S'3F5847E26F87ED21272485F0403704B5'
p1262
sS'6EBD5A7ECDE5A260282E50B5516DF780'
p1263
S'0B08AC842CEBDFF27A7F350AD37348F7'
p1264
sS'1908D51FFBCFA0C6A2E177B9624B5309'
p1265
S'F09DCF0BBF03E8F7F60F2EA5FD1FE0DA'
p1266
sS'87AADE213622BD6F1E92A09001A5D3E3'
p1267
S'5430D51E0F03DC22740108270588A221'
p1268
sS'A2F2D68022B65670FF0B0B559D72180D'
p1269
S'9C281E30F56FE27B96C8B6B8EF2B7E45'
p1270
sS'6F30E210AB8C76C845E022B3D2BC99F4'
p1271
S'6C06C48D3CBBAD9495F3BE1C9A5CA348'
p1272
sS'6EDCCC32E0F6D67DB1C0FD9A9C1AE141'
p1273
S'75C6C33B177E47F7816E8EB8CBCF6270'
p1274
sS'B4A4A6998256C00ED9A99F6F5FD76BE0'
p1275
S'6D4EE3DDBE98EA29ED8EF0A657EB6BD7'
p1276
sS'C6A7148A87DFBBD3F0ADA1A1E29FFDDE'
p1277
S'A55537C77230FD4AC51BC85448CBB305'
p1278
sS'C9089F9D4FFA62BB08CE49F00C1D5DEE'
p1279
S'720C1637EC413AA781A963C1E5C4663E'
p1280
sS'7CDF660F4163BCF52A542476EE9F293C'
p1281
S'4463B8E5DF58DB2BCFF9B1D27188EB61'
p1282
sS'3EA6279C75C9E5999C9803B9848DFE2F'
p1283
S'9235DA2A8636169DD9384A3DC97013A1'
p1284
sS'9B9565646C6D6CDDABAC4BCBA80C4210'
p1285
S'6B649C17EB768736A178253ACAE37B3B'
p1286
sS'70CE5F556AE11265572DE079FF5682BC'
p1287
S'EDAD67A7870137E4AE0CF70581CD160A'
p1288
sS'0949B79B840E341A2AE2EDDF0A5FB43E'
p1289
S'287D4324E3389C5B97DE9064DC68F7DD'
p1290
sS'0B5CF2511D670E2DDB2523EC2C987396'
p1291
S'17B25C8F01C982BD8F871E32B4521868'
p1292
sS'76CDF9D7A92D572979BFA1D513453F97'
p1293
S'15BDC182A129B363299574D67088F2AB'
p1294
sS'860FE777642AAEAFF96102AC9065883D'
p1295
S'720C1637EC413AA781A963C1E5C4663E'
p1296
sS'9166C5AE0CFCE28495805FC788F96407'
p1297
S'287D4324E3389C5B97DE9064DC68F7DD'
p1298
sS'4F5D30C215BD2D0150BE84E920B7D92C'
p1299
S'720C1637EC413AA781A963C1E5C4663E'
p1300
sS'D4CA5E4281494078F218905AB5992C00'
p1301
S'287D4324E3389C5B97DE9064DC68F7DD'
p1302
sS'301CDBE551DC9878553AB6D3B0EC0F98'
p1303
S'720C1637EC413AA781A963C1E5C4663E'
p1304
sS'E5341D62FC470C0A3177DD1E70B9EC55'
p1305
S'287D4324E3389C5B97DE9064DC68F7DD'
p1306
sS'83B95AB55D4687CBD6BC094EE47009CA'
p1307
S'720C1637EC413AA781A963C1E5C4663E'
p1308
sS'55C77F26D42C2EDCFB3A2E8291288BF6'
p1309
S'720C1637EC413AA781A963C1E5C4663E'
p1310
sS'2DD0B3B0C127B9924C4883DBE8AB9515'
p1311
S'923202B1D7EEAA98E7BB4AA435B10964'
p1312
sS'B210D2D370196030D1D3E9BC8751F853'
p1313
S'19D6ABB5B8F57847C32C9196333FAC0E'
p1314
sS'904115E892F3A0D98CDD233E86FFA9E4'
p1315
S'720C1637EC413AA781A963C1E5C4663E'
p1316
sS'A6AEC75A56D0C116F316002AC741ADA9'
p1317
S'720C1637EC413AA781A963C1E5C4663E'
p1318
sS'69B6FC49D6E64DB07FD1DBBE85F84EF9'
p1319
S'287D4324E3389C5B97DE9064DC68F7DD'
p1320
sS'0C8D405AA652FCAFE44468DAE045FCFC'
p1321
S'E783562B320791EB3490029043F5784E'
p1322
sS'C9DB8F17264BB8A8A3228278AAE0B5CC'
p1323
S'23B7534F27248A84B62EF32D6704EEE3'
p1324
sS'D2EB37E38A6B43DAC97F01181FCC5277'
p1325
S'720C1637EC413AA781A963C1E5C4663E'
p1326
sS'D26219CD0FA93059D94EDF926ACD441E'
p1327
S'BA175598D1CB81AD8F50120951C0BBF8'
p1328
sS'E30BDAD098606BFC7077FBB53D4E1EE1'
p1329
S'EEE9B4F9FFF5A0588EF987A06A833422'
p1330
sS'2432F83ED3A76A0FFB4E127E154A6EB3'
p1331
S'720C1637EC413AA781A963C1E5C4663E'
p1332
sS'7A053446CE5CC33FFEE84F43D25ABED0'
p1333
S'720C1637EC413AA781A963C1E5C4663E'
p1334
sS'1BDF35496B8D85603B73661499A09C5D'
p1335
S'E910626D1D6ED6C7880A3F3C2A190D9F'
p1336
sS'44511328C46C2EDA9C9758708E71FFF8'
p1337
S'F8DA2692F3F3EC0F3AF4F15D8BFBA15F'
p1338
sS'9BEC4E73F517956DF372FEADAF31A178'
p1339
S'287D4324E3389C5B97DE9064DC68F7DD'
p1340
sS'9AEBC753B6EC4A9DCCFD40AE29F8FEDF'
p1341
S'0DE2A8F8A8DA33317E0E106A1B09006D'
p1342
sS'914D10C78582585DD18D056D6E3EF62A'
p1343
S'2A3CC3224E83E064BF9BB1C9472C613D'
p1344
sS'50000520FE2D3D07F51F5A462DC219A9'
p1345
S'4DCE2730A18E03B425792CBF9B81178D'
p1346
sS'8001F79FEDE2635147A744857431EE22'
p1347
S'287D4324E3389C5B97DE9064DC68F7DD'
p1348
sS'E4097FC87F22D669E4B752DBC28DA863'
p1349
S'44E207C6DEA90F882C4F4EF28BF04E10'
p1350
sS'E7137061AD919028D693861AFD76823A'
p1351
S'287D4324E3389C5B97DE9064DC68F7DD'
p1352
sS'77714677145E72020360A29B77401918'
p1353
S'287D4324E3389C5B97DE9064DC68F7DD'
p1354
sS'76C914A5BBE132A1F2A5E75C1716C863'
p1355
S'287D4324E3389C5B97DE9064DC68F7DD'
p1356
sS'E8EA59FB549361CB9C5FD9E9A18DEE42'
p1357
S'A2701FEBF98FBAC2D41763681AAA1E21'
p1358
sS'F037F762D60C083379E2C06612237AD2'
p1359
S'44E207C6DEA90F882C4F4EF28BF04E10'
p1360
sS'56C5D79B91876B10F8852DA35595DDD5'
p1361
S'50D16A0C729788AA9A4AA6E53EE627F8'
p1362
sS'024DDEE0CB969F783F0821B446F01A51'
p1363
S'287D4324E3389C5B97DE9064DC68F7DD'
p1364
sS'E1981EB74EC57D17A2EB9DC96E666351'
p1365
S'B0C62B62D60739F79805D8E8CE3D0804'
p1366
sS'38CAC5A5D3DA42E54B0017E1283E18F1'
p1367
S'A30E83EB57E3A9194737BD967C7869BD'
p1368
sS'B514BD46BB46201BBE5D5A289E9A8C29'
p1369
S'DF4CC8A3EDC72676743EF6E28687B629'
p1370
sS'8BE3AFAA915F83364649111FD8FD1CFD'
p1371
S'287D4324E3389C5B97DE9064DC68F7DD'
p1372
sS'04B454D83879FD0D43592A77AD934231'
p1373
S'56279E117B3149B21115101F10330FAD'
p1374
sS'8D7C03106223A483CE76735E0C69508E'
p1375
S'8EA999D4FA9729597AA221EE26DF29A9'
p1376
sS'DE3DBA8F368151EDBC31119034AA7678'
p1377
S'62922E929E0F0EB0CD04533B23892AAC'
p1378
sS'33FA63DCB06CF99C74A67D7155B7082B'
p1379
S'8D79FB18F7265F1B79E640AB9C72CAF2'
p1380
sS'46B1BEF76DF996E4577D64A5DA9949E2'
p1381
S'6BA3039E97DC756E847DC3C37ACEC6D4'
p1382
sS'948487FA54AA54A52C45972B61675153'
p1383
S'287D4324E3389C5B97DE9064DC68F7DD'
p1384
sS'95143ADD7B0D386A90ED88BEF29FD5B1'
p1385
S'7DA76B285D4FC8A087480F178D4EF5B7'
p1386
sS'4D03CFB30902B041259AC17EF7AFD200'
p1387
S'DAF32A75FAE0629489814517C753F531'
p1388
sS'8BA477E46D0A035B0CCE06E4782BF1FF'
p1389
S'44E207C6DEA90F882C4F4EF28BF04E10'
p1390
sS'2D3B1081E955F58E856C0FA3649C220F'
p1391
S'EF325C65B5B6EA5276CF24FACF35350E'
p1392
sS'E843A3B49A1E9947302FBF469F97AE0B'
p1393
S'287D4324E3389C5B97DE9064DC68F7DD'
p1394
sS'FAE3E41C564CB1FAA70A4A5542F5FBE0'
p1395
S'287D4324E3389C5B97DE9064DC68F7DD'
p1396
sS'C1903F4FF94154D43FEDABAABDF830F7'
p1397
S'FC07ADE225CAEE270CB6BC9AD096D0E8'
p1398
sS'8A9DE063355C76A4BDEFEA7B91F15D4E'
p1399
S'720C1637EC413AA781A963C1E5C4663E'
p1400
sS'120DE1590E7A04A2AFBC3B528D954F67'
p1401
S'44E207C6DEA90F882C4F4EF28BF04E10'
p1402
sS'ECA94DF18B559046D250A028B96D2A10'
p1403
S'56DDF4D8C0B4BC1EC9D42C809C2FD6E8'
p1404
sS'FB723DFC1310B0EDC32C3974D8306C9C'
p1405
S'CBD7A0119F9030C5EBA9FAE7C711EC1D'
p1406
sS'8A9F969925F299650EFBC98AEF82B27C'
p1407
S'287D4324E3389C5B97DE9064DC68F7DD'
p1408
sS'920A62CD626AD9F3608672AE95D942BB'
p1409
S'FD832C35105933968A217AEF7FD38E40'
p1410
sS'029C79200264DB099035987C32F834C4'
p1411
S'175D90B9D8B078EFEE0BBAC4E9EDD57F'
p1412
sS'73161862EF16201BB1166F2580137F85'
p1413
S'ADBC84E48A179506C328F30046D1DA12'
p1414
sS'3E70AD1F9E522602515C414166150397'
p1415
S'2E3F7626D8893D2E8E279D6D5055FD8B'
p1416
sS'BAE1EB48B4DF74939E15C8C5B0A8BD17'
p1417
S'20C485D7DBDC1710F31DB72F8864FB64'
p1418
sS'8941CFE9C00AF901BDDD6258A9722731'
p1419
S'A9D049C1D28986115B97FA53F780B7AF'
p1420
sS'BCC43D84C360B6E6A388199CE8A45400'
p1421
S'287D4324E3389C5B97DE9064DC68F7DD'
p1422
sS'A45C04151AE927C8643C394442A72A70'
p1423
S'DA919DC4F43A10B08967F4394B90DF35'
p1424
sS'B4B6EFB2B8A2F6B0F6C24528A35F9614'
p1425
S'720C1637EC413AA781A963C1E5C4663E'
p1426
sS'F07A8BF3B4DBB9141E586FE615E2EE8C'
p1427
S'B5B154D140549427BE8F5A5CE4D5868C'
p1428
sS'694C957B428B3011044E42D5880E93F4'
p1429
S'A28E21F24C9F546A89849CBA604881B5'
p1430
sS'453E58D42C36A70C875A1A8358BCE587'
p1431
S'08E551D564D0FF738F37FA586AAEC01E'
p1432
sS'31A787194F748A09460F46F56C6DF4B6'
p1433
S'C89203EE98C18F88536B220CAF915266'
p1434
sS'A4B490DD794942B233A73D643EA24C5F'
p1435
S'287D4324E3389C5B97DE9064DC68F7DD'
p1436
sS'81F832E9C3ED8AF3CAE90A73DAB7C579'
p1437
S'B1D294796884A58F3C4AEE0C155B788E'
p1438
sS'04DEEF9166F10A4EF238C1DC72E12BC9'
p1439
S'A5C1448C60B12D2BDD83C7BD3DD3C36B'
p1440
sS'53253C9029A5BC77A07CD5D5F3415028'
p1441
S'720C1637EC413AA781A963C1E5C4663E'
p1442
sS'DC9125C7E957AC62C228A49C6CA7A4AC'
p1443
S'654159F838143F3705C0874DCB8C291F'
p1444
sS'0D25EA7728D19013EF87D2CBBAB91AC8'
p1445
S'5D17E785E322B5EF8CA814B434DD46EC'
p1446
sS'CC9C9C5044CF109C5B04A2BE0E26068A'
p1447
S'287D4324E3389C5B97DE9064DC68F7DD'
p1448
sS'8D3137429E07C8450DF6DCF2DCFB119A'
p1449
S'287D4324E3389C5B97DE9064DC68F7DD'
p1450
sS'06A2CB3513C0D750E9CAF6D7768D4DCA'
p1451
S'287D4324E3389C5B97DE9064DC68F7DD'
p1452
sS'327B3B4D66AD6FDE4378467660CEF160'
p1453
S'253EA480D78C075C7B2F888B5B411C47'
p1454
sS'A8AF9A48A3AD5160939A19E0678C31B3'
p1455
S'287D4324E3389C5B97DE9064DC68F7DD'
p1456
sS'FA60A9DEF23127BE5BA846E33C89E707'
p1457
S'F7BB9A1B004972B46425DAC3B139B46F'
p1458
sS'C93B219E25FD7E611FCBB72B11DF12CF'
p1459
S'92E1E9EF012FEF290833183536314BC7'
p1460
sS'9ABC1FB52248E1629F29B07FAFA4F4E6'
p1461
S'F4D3F197224E176A167BF60F92C7D271'
p1462
sS'F61765232D7A761AF6FAE69E85F55433'
p1463
S'CABDE26299E0AAEEA6D84BDD1DE93C18'
p1464
sS'DBC5F91DBCA4DBEE3E223013F9D74DCC'
p1465
S'53DD27EB528BDD162F2F67B69813AB6B'
p1466
sS'D30A5C5B484DCACB86171365F39315B1'
p1467
S'CD681E2F9CBB36D68B646FFA0D6F156B'
p1468
sS'9F9AAB9C0F487FA2E34B20CFEF93C8F0'
p1469
S'7E784063CAAD74159720C19D83A3CCE7'
p1470
sS'EBB55873500E1CDC004F2758C3C6D34B'
p1471
S'3FD4A9E3E3108CB14507E76EB7E74CF8'
p1472
sS'2B37396885A25145A2B7FBD7DCEDE068'
p1473
S'7CEB64D06BBC4D7C97EF720208976672'
p1474
sS'C5ED12BC40666E9310FE5D139D57D59D'
p1475
S'287D4324E3389C5B97DE9064DC68F7DD'
p1476
sS'9BD995E26AF997E88AD707F2003E22FD'
p1477
S'97D6E6469BBEB8C92882A35F89420B5E'
p1478
sS'D4E7D491F8F6A16F60F0B4E4A9775F33'
p1479
S'57C8145BAB48FDCA9F17068D19FC4EF8'
p1480
sS'D0335FEE0AE77C1EEE37C08BBCD046DD'
p1481
S'29D7761602A63AAD37CDCD4D4E0281B1'
p1482
sS'54A1CC11A06D705E34A879D37FB9CEC9'
p1483
S'4E163573EFF3A2238CCF55602C29ABCC'
p1484
sS'13426834B3FA34D126CA05CEBD63E275'
p1485
S'45C7ECF227E88448C06666E7FCDB1BFA'
p1486
sS'0BEF786E82E86CC53236A023DA75388F'
p1487
S'42C591DFBD5C25D6AB3C78A504BAF8FD'
p1488
sS'8E4DEF0B842E5522581B807FE73D1BCE'
p1489
S'4DFA01FA683832B38D9AF49D4FCC088D'
p1490
sS'5EF088CC2A10B10B3ECBD6AF29BB47D6'
p1491
S'06D63799C76236FF13165D677C10F871'
p1492
sS'1A4A3FEB56F0665CED3DCD5139CEF02D'
p1493
S'B7D5DDE0B2FC1CB1FAFDDA256CF096B6'
p1494
sS'5E98842CC675E5A0A8CD3038BA890A5E'
p1495
S'287D4324E3389C5B97DE9064DC68F7DD'
p1496
sS'3FA9DAFACF64A50FBBBA285653F2D7D3'
p1497
S'720C1637EC413AA781A963C1E5C4663E'
p1498
sS'EE105FC96C0EC4A10CB478B012CDB161'
p1499
S'720C1637EC413AA781A963C1E5C4663E'
p1500
sS'BA49E64C314744011E64F4A2597AC664'
p1501
S'19E0BF3DD47E92D57BCD6F68D530CDBA'
p1502
sS'60578AEDE2EEB609491C497BE48FC045'
p1503
S'1C7D8519FEAF76AA3319DAB8E39A7512'
p1504
sS'44A927F3AE055EE347B3E0446CB89859'
p1505
S'720C1637EC413AA781A963C1E5C4663E'
p1506
sS'D42A5F027206F68D9218BAB142AC7B9C'
p1507
S'5E160339A63D7627F523B9987F838AC0'
p1508
sS'E07F7CD76855AF1BF135BD8CEFD8C115'
p1509
S'720C1637EC413AA781A963C1E5C4663E'
p1510
sS'48EE8F1C9F11419D7AB0C1937D0F6DE4'
p1511
S'A10F03C38EAC7FA4E33C36F62B400171'
p1512
sS'24B122B414D82486AE136CF43DB114E2'
p1513
S'720C1637EC413AA781A963C1E5C4663E'
p1514
sS'B65677B8D1374DF056E69FA06B6D86A9'
p1515
S'346078D7C2E6829493C439E06096DDF5'
p1516
sS'77E03DE3C53E5EC85E56CB87BDB21B06'
p1517
S'287D4324E3389C5B97DE9064DC68F7DD'
p1518
sS'588785B161E1430A831BCE465C50A2F7'
p1519
S'287D4324E3389C5B97DE9064DC68F7DD'
p1520
sS'4D9A2EC2BBACFE23532594FBEF2D6907'
p1521
S'923202B1D7EEAA98E7BB4AA435B10964'
p1522
sS'2282D3966A6E06DEB52E20732F20607B'
p1523
S'287D4324E3389C5B97DE9064DC68F7DD'
p1524
sS'7AC7FDE9CD09CD217343EF41268A5987'
p1525
S'165C6BDD6B804D4E9EF14099F0A43F0B'
p1526
sS'23296CF02A9A2A03591541CE05145BC9'
p1527
S'720C1637EC413AA781A963C1E5C4663E'
p1528
sS'E5F5A52D8A80F547032B3E3EDB6FBAD9'
p1529
S'ACF45F3676EEA186F93C709EC58BAAF2'
p1530
sS'8F3F3D1C5D7980EC64D7F32C5CD48BD7'
p1531
S'287D4324E3389C5B97DE9064DC68F7DD'
p1532
sS'B6200776AD9F7324B805113A30B80211'
p1533
S'25D05A0A5B98DB34946CD88548F3A50F'
p1534
sS'075CA759B6836B39D5DCF525A0A59CD6'
p1535
S'287D4324E3389C5B97DE9064DC68F7DD'
p1536
sS'D8C92DE5F62D33CAFDCEBB5202131419'
p1537
S'B79EFD7259D91C7C6CB268E08F428A33'
p1538
sS'5726BD60CB63477BDC7F1885E9B545F0'
p1539
S'287D4324E3389C5B97DE9064DC68F7DD'
p1540
sS'CD23133D2029A779459521BAB12AC319'
p1541
S'287D4324E3389C5B97DE9064DC68F7DD'
p1542
sS'F07E9ACC217D4A248E2128CFD04F9074'
p1543
S'E65651516837DE815BE96F311ECB12CC'
p1544
sS'2B7D7586F26DB58F8EDBABC43E2603E2'
p1545
S'720C1637EC413AA781A963C1E5C4663E'
p1546
sS'133C9798EAD457E3AD19778DBF0E17D3'
p1547
S'287D4324E3389C5B97DE9064DC68F7DD'
p1548
sS'CF3F4619B5505B476C24888ADAAEF2F0'
p1549
S'287D4324E3389C5B97DE9064DC68F7DD'
p1550
sS'2D0FB129426CCD65949FC6FFFA463B55'
p1551
S'074A6C0FC9086EB691152FB663C5E6D8'
p1552
sS'9ED58E75D0AF5807CD175C73C8E97B8C'
p1553
S'287D4324E3389C5B97DE9064DC68F7DD'
p1554
sS'1FB3D4D54BA9076A454C5353F4064D54'
p1555
S'720C1637EC413AA781A963C1E5C4663E'
p1556
sS'11F2A60750C9B1F51B46793EAABA96A4'
p1557
S'287D4324E3389C5B97DE9064DC68F7DD'
p1558
sS'84340CFDADA181ECABCBE060AEE60368'
p1559
S'287D4324E3389C5B97DE9064DC68F7DD'
p1560
sS'428A4ABE7180F86C5E0CCB9F10E5BFA2'
p1561
S'696FE614DD953081D92B9A25A198B7D7'
p1562
sS'609DF3C0269C3D2020B9102A024132FA'
p1563
S'720C1637EC413AA781A963C1E5C4663E'
p1564
sS'147793AAFEA5211EA28587FBCA7CB962'
p1565
S'C071EB676FB8F14A6A2C6722C7167FEC'
p1566
sS'916BB6CC48C421F45AED058B66E5920B'
p1567
S'4EC08078762A9EE25A9D0F221B9CEF73'
p1568
sS'B76343CA19EBA626D9D9A7BAB9A8E15B'
p1569
S'D34F36051FAC40F002F9482BADEAA0BF'
p1570
sS'CDB322B15793AD3D369983185A5C960A'
p1571
S'720C1637EC413AA781A963C1E5C4663E'
p1572
sS'6917E8C815F661C06FF8D1026BEEDC73'
p1573
S'7D6F86952492F07452E262C6F9FDCA58'
p1574
sS'F40FFC17E6FE2F96FCE5263024348C08'
p1575
S'720C1637EC413AA781A963C1E5C4663E'
p1576
sS'F6D9BA005503D55E89336C2503CD4F4D'
p1577
S'287D4324E3389C5B97DE9064DC68F7DD'
p1578
sS'B8CE1CDC7333CFC6D864FCA1A0C2AF39'
p1579
S'287D4324E3389C5B97DE9064DC68F7DD'
p1580
sS'2244AD47A8B38A96F45319ADA8721608'
p1581
S'91EF5AD0F59E7FDF5FFA8E72BADA78D9'
p1582
sS'AF91B8DD2513C6F11003E9DB54A2FCC0'
p1583
S'352D373C4C38EAEF5C2B9C79B9C33459'
p1584
sS'27FB8AB4B291D79D7EBEC699CE5439C3'
p1585
S'5FD33F9C95396BFC9C98CD4323C1B219'
p1586
sS'70D5ED9EF356C594D78C38E04F7560B0'
p1587
S'287D4324E3389C5B97DE9064DC68F7DD'
p1588
sS'005E4B7C123966E039FB3ECBEC80750D'
p1589
S'C838B98B55A720A989140DCCBF5F43CF'
p1590
sS'0CA2F0E6CE05940CDAD49C0FB55C3A1E'
p1591
S'F5557C32335ECE64F7E86DB58FDFB525'
p1592
sS'2953C2E7436165B9C214915FD1F58819'
p1593
S'44E207C6DEA90F882C4F4EF28BF04E10'
p1594
sS'B7848914A40C17C9175C19766C0CFB72'
p1595
S'E0242CAA4F21FC854438702E8CC96ACD'
p1596
sS'4650D8570C081C9FE43723131A95160C'
p1597
S'287D4324E3389C5B97DE9064DC68F7DD'
p1598
sS'2A7E7F078A6A844B21A68FB0694AD92A'
p1599
S'720C1637EC413AA781A963C1E5C4663E'
p1600
sS'0EEDC616FDB2F31C0CD1A449B58B8DD5'
p1601
S'842D0FD27BA2B5F3C734B422A9ED60F3'
p1602
sS'F8FA7B6D637DD3C680F571C9A831FEC3'
p1603
S'287D4324E3389C5B97DE9064DC68F7DD'
p1604
sS'0921F312350D58E20BABA0833569C1B1'
p1605
S'720C1637EC413AA781A963C1E5C4663E'
p1606
sS'6BD5B59D2C4A58F6C573B6DA475241AA'
p1607
S'82B8CD3C6B8FFB3F7EF0B41FB34BED8E'
p1608
sS'D1F5100D326CFDFBF723A0B6BB18789F'
p1609
S'35E41A091779F077C8C2B3EFA5619F2E'
p1610
sS'5F7084B09E348D21F5BC0C27B5B18654'
p1611
S'287D4324E3389C5B97DE9064DC68F7DD'
p1612
sS'89D850E8DAE33342FBDB98864D0A2A10'
p1613
S'287D4324E3389C5B97DE9064DC68F7DD'
p1614
sS'0377AEB88CC69660249570FF085B7C48'
p1615
S'720C1637EC413AA781A963C1E5C4663E'
p1616
sS'C894A469B0A5D78F06773286397C4F3F'
p1617
S'F50F3AB9D61E76D57573855EF9EBED0A'
p1618
sS'653FD88CE10193E8B6304BE943756706'
p1619
S'2D08B84546AC3A5EAF60A473AF9E04ED'
p1620
sS'2B7984FA35404FD6A317E37B3DAFE234'
p1621
S'3A3B7CBB781742DE8B0A1B7D27C73DEB'
p1622
sS'5FE82F8CD7363699A16584FA0AED8496'
p1623
S'287D4324E3389C5B97DE9064DC68F7DD'
p1624
sS'C1A3013D8AC067D6216B6EFDF00E64FD'
p1625
S'D6D47D9484795143943984DB6457499B'
p1626
sS'151FBCE0B274A547AD57F8157EAD1244'
p1627
S'09B9B178FDB6423C8F6EAD87F7CE1A92'
p1628
sS'9EB67D98B75B21CBD4EECE3D406595B5'
p1629
S'1D6BE1F27ECCA51EE00E0DCAC4DF918F'
p1630
sS'EF56E2BC9C7FAE3A8DA33116BFCF4CFC'
p1631
S'720C1637EC413AA781A963C1E5C4663E'
p1632
sS'D305DC29BE5C6DB99DDCF72E5C97F07A'
p1633
S'720C1637EC413AA781A963C1E5C4663E'
p1634
sS'727678F7397B8ED24A0C4DBFECE319F8'
p1635
S'287D4324E3389C5B97DE9064DC68F7DD'
p1636
sS'6A9F86DF366A94A6B0C5A3F2CBC3A39C'
p1637
S'14A238AE90ADCA9B98788C6A267061CE'
p1638
sS'0A2A5C922AC6BC295D350C4C206CFB88'
p1639
S'75C6C33B177E47F7816E8EB8CBCF6270'
p1640
sS'3B28FCB803BF451FD75DDB1BFC26A9DD'
p1641
S'73CCBA4005228F9B9C1A76CF48835A92'
p1642
sS'87BC4BB867E8EB6A072B9C9C1B6841FE'
p1643
S'287D4324E3389C5B97DE9064DC68F7DD'
p1644
sS'4401A7B1DCB093A00CEC00A3CF102BD2'
p1645
S'299B26EBB3B3712F2978EAD585BC6098'
p1646
sS'967F25B656AC1D7F04492FBF1F0AF346'
p1647
S'720C1637EC413AA781A963C1E5C4663E'
p1648
sS'E462937B96A9A6F0C9E69820B8F24E53'
p1649
S'F1F4F379CDA25ACE73490C05270CD7D7'
p1650
sS'370D0A14D3936DD39F034D4B7FD49133'
p1651
S'287D4324E3389C5B97DE9064DC68F7DD'
p1652
sS'75D33F260462A209ABC0FE4284BFEB0F'
p1653
S'720C1637EC413AA781A963C1E5C4663E'
p1654
sS'AC60A05F560839AE7AD27146420D54FE'
p1655
S'287D4324E3389C5B97DE9064DC68F7DD'
p1656
sS'82D9A7A12563230D1F9BD8CF4776CA2D'
p1657
S'287D4324E3389C5B97DE9064DC68F7DD'
p1658
sS'3E67E0C28DFD290AE7A932F3D5EB9F2D'
p1659
S'DCE035FAE518CD7A173C5F91C99BF020'
p1660
sS'B2F339ABFB4643B802D0847F8BE93A53'
p1661
S'A94618A2D164DAAF80161469EFEFE0DA'
p1662
sS'9FF0FAF141B0E47943C6EE30D1B38865'
p1663
S'04991DFD2D9547A40BE8474F1A1CABCF'
p1664
sS'2CF453FCB6C67A8F78D0F54810363299'
p1665
S'44E207C6DEA90F882C4F4EF28BF04E10'
p1666
sS'7AFD5102BE0ACAE7D14B0C1DBA827AD1'
p1667
S'720C1637EC413AA781A963C1E5C4663E'
p1668
sS'A9760C1728FE61AC45AF55122E0C1AC8'
p1669
S'2F48A0A94E31128807BC1021A863EDFA'
p1670
sS'EB8C9CB80590296608CFFB428C08FF81'
p1671
S'FE92DE38A4A3F408AB296C44CB5E9E3D'
p1672
sS'3FDADCC7FC78037AC851D5EED5C4C6FB'
p1673
S'8E34746AA8CD147B875EECF44B403344'
p1674
sS'A5FCC08D78CD999BE6D3237148E33E73'
p1675
S'287D4324E3389C5B97DE9064DC68F7DD'
p1676
sS'98F0E5CE5E978E372D984947E34CEF5E'
p1677
S'287D4324E3389C5B97DE9064DC68F7DD'
p1678
sS'511332D1411F330209DB8BF0811742A4'
p1679
S'FF6E7ACAC29F2DD3D0AD80C9948FF12F'
p1680
sS'D3740BC7FA27DBE7F38FD88EF6BDEEEC'
p1681
S'5287C6B18885146B09F2E5D40FB01FAE'
p1682
sS'A4EBA517D953BD6411F0FFD58D9089B5'
p1683
S'287D4324E3389C5B97DE9064DC68F7DD'
p1684
sS'527FFCD7F5C5081B4C99D1A368BE94FE'
p1685
S'923202B1D7EEAA98E7BB4AA435B10964'
p1686
sS'132175EBC7DA6AFF37196F455D3EDD5B'
p1687
S'6939A42F13ACC8E961C3C5A4F515B6D3'
p1688
sS'672AB0184C20CC2D89CB3FBCE1729655'
p1689
S'0BC28E1DC754B4914DE04138B1B1C592'
p1690
sS'77BD21F9F227ED72E0AD198914A5D4FA'
p1691
S'CB16F617795455CB77F269513D9A2652'
p1692
sS'2874DF34E5CCEE5F55EF23F71A602C3B'
p1693
S'F880891B2AFC717CEF8CFF93F8BB206E'
p1694
sS'17EB5A5ACD555DA85A2714DAF6B4C630'
p1695
S'287D4324E3389C5B97DE9064DC68F7DD'
p1696
sS'72AA77A67AF247AAAAE5A80C2C6A8B23'
p1697
S'1E4BBCEE1A524D60359A90152A2C3C19'
p1698
sS'351AF9DEBC7B9605421BECEFF190C609'
p1699
S'287D4324E3389C5B97DE9064DC68F7DD'
p1700
sS'F4CA462ABD626407E30AFA765B6C034B'
p1701
S'720C1637EC413AA781A963C1E5C4663E'
p1702
sS'8E4C49C7BF5C0A86B3E85FD2C2B57E5F'
p1703
S'4462CB5A5B37105289004ACEBAB4C5C6'
p1704
sS'1114BC7085C98D202E6903DD666510DF'
p1705
S'B23412287A6AAC0BBDB45874713DFFDF'
p1706
sS'536F5874AB9F263B3CB860E555053F13'
p1707
S'720C1637EC413AA781A963C1E5C4663E'
p1708
sS'8DD35CD6568589E93CA65B86C55CB4F1'
p1709
S'B6B6D417BF997BD5E4EC8C734EB9600D'
p1710
sS'F74788DD757ED4B6E99D9AC7CDB1078E'
p1711
S'720C1637EC413AA781A963C1E5C4663E'
p1712
sS'7C6B3C53DFDD242DE16576388D61EC98'
p1713
S'287D4324E3389C5B97DE9064DC68F7DD'
p1714
sS'7B57A3B506B895A0F500304CDF8736C1'
p1715
S'152A101A0EA89267D352A8569BF481FF'
p1716
sS'C765FEB8AECBCF9AE2598C28A927011D'
p1717
S'53DF55AB90AA91000CF433B812A4A4F3'
p1718
sS'8A2A09E6EB93B378892E2073C4776190'
p1719
S'287D4324E3389C5B97DE9064DC68F7DD'
p1720
sS'887F8999B38D426F1AB57BBDBB1C4912'
p1721
S'FDA55B42E7E7BA8BEBCA1CA055B9C71D'
p1722
sS'D272B7F4B00076568D5F108937826849'
p1723
S'EEB490133C3B938D9AE30847A878E521'
p1724
sS'54D0D790A92245381866E00089477879'
p1725
S'8C52BCB0BD5AC7EF9AEB15A34CCB6E56'
p1726
sS'E0DF47F7C2679AA58423AA70D9E9E6F0'
p1727
S'367012F8159648C6402A4435B4560BCB'
p1728
sS'926D0559C12AA2E7AEF8D1F3E037B799'
p1729
S'287D4324E3389C5B97DE9064DC68F7DD'
p1730
sS'B635E03C1B8F95BD96947B60FC6F286F'
p1731
S'519980B7FD50520E94A0F164E6709CD3'
p1732
sS'5879C4503853640E65A47A26A024C619'
p1733
S'287D4324E3389C5B97DE9064DC68F7DD'
p1734
sS'C871233EF02CB248B3AA55E895C6C63C'
p1735
S'6DE0B9ECF8AC86892CEA4C1C75CE1246'
p1736
sS'C9A8C03779C0CABA69499E13D8FF876F'
p1737
S'720C1637EC413AA781A963C1E5C4663E'
p1738
sS'959B16BE911B5DA718C7D71DA6D7611E'
p1739
S'287D4324E3389C5B97DE9064DC68F7DD'
p1740
sS'84AE694E0F81C564B8828323BD22948A'
p1741
S'720C1637EC413AA781A963C1E5C4663E'
p1742
sS'87E44D4679365B652FD9D1A353EAB278'
p1743
S'0E373E516147C56FC77AF0D3ABBE393E'
p1744
sS'144A7019283BABBA7FD8B4FE6A4B7462'
p1745
S'287D4324E3389C5B97DE9064DC68F7DD'
p1746
sS'503B76333AFB424A5B19682B38EE0AED'
p1747
S'A7A9D8188C2736361A50BA6052BF901C'
p1748
sS'6A90DBFC4675154AB102E9FD44BF4295'
p1749
S'287D4324E3389C5B97DE9064DC68F7DD'
p1750
sS'E46F2C36747A893801B5068CDCCE7654'
p1751
S'5575F38D93F4B2A85610A9AEB2F2E8A2'
p1752
sS'123F3531D8BD89C2E01B9EDE61970AC1'
p1753
S'287D4324E3389C5B97DE9064DC68F7DD'
p1754
sS'D1234DAF07662F4238C243D266EB5FC4'
p1755
S'F3CE14614481D1E12B02D3B1A9401577'
p1756
sS'D2485512367DD5AA0E0D2FC99AB64560'
p1757
S'720C1637EC413AA781A963C1E5C4663E'
p1758
sS'CF2711EB3FF7AB0365B7B01B8159A4D9'
p1759
S'287D4324E3389C5B97DE9064DC68F7DD'
p1760
sS'735F4F0C3598DA1C71881F37ED1DB53D'
p1761
S'7C93F707A1C91E98E628FA188E00CC97'
p1762
sS'A41E0C5E4A310F98F1FE27AB73BE5B80'
p1763
S'8FC3E0118F9A947E4D6A649CC81360CE'
p1764
sS'1ECE2C05763058559C3737FE2E79B9C5'
p1765
S'720C1637EC413AA781A963C1E5C4663E'
p1766
sS'528094AB454DC8C9325AC4CA0A4FA3BF'
p1767
S'287D4324E3389C5B97DE9064DC68F7DD'
p1768
sS'B07D682EBBA471DED0E92177271638BF'
p1769
S'575E8D57477099CD8C317AD410BEDDF2'
p1770
sS'25EFE10C6B342453666122C05BA3A3C9'
p1771
S'720C1637EC413AA781A963C1E5C4663E'
p1772
sS'C0D1DDF1448AA59996D10D8585216BC4'
p1773
S'287D4324E3389C5B97DE9064DC68F7DD'
p1774
sS'7F9F22B916508D72B9CBC7F1A9748322'
p1775
S'F989C6AE8A80C5274AE7C54A0E50FB48'
p1776
sS'DABDD96128BCD3387C608E70AD89950E'
p1777
S'720C1637EC413AA781A963C1E5C4663E'
p1778
sS'9822C86D99C75E3DFEF8FE668EB7855D'
p1779
S'720C1637EC413AA781A963C1E5C4663E'
p1780
sS'55006BE66E0623502700F57B53715486'
p1781
S'AFED820F1C5E613CBD876A779A844D30'
p1782
sS'6D67A72B529A6F68ECE66492C0262A2C'
p1783
S'91BB0AF1FD383482545891BE919CD98F'
p1784
sS'CE663DCDC2BDE2D5873401DA8C4BDE2E'
p1785
S'70842DF428C84AC5EEE1CE7CF5AA176E'
p1786
sS'10B9E014A38BA21B495DB072DE274A29'
p1787
S'51FD84DC1C3C0B2B63DF46DEA55B5252'
p1788
sS'39517A560807D2A44521A8A328BF3234'
p1789
S'78FE1470A5561158D41AEA2C69A3B70D'
p1790
sS'77E33B3606561EE83B856A687D4386B4'
p1791
S'287D4324E3389C5B97DE9064DC68F7DD'
p1792
sS'6749A4A47991AC35D68FF4561725DA1B'
p1793
S'BC0AAB1C2538707BF54193AC868FE1F2'
p1794
sS'19270266D8E8B38B09EBB43BE433C524'
p1795
S'3F47A3CDA1A437E70DC0993E7506BDBA'
p1796
sS'CF53D51B887B8E7A4E10B71C653C2467'
p1797
S'720C1637EC413AA781A963C1E5C4663E'
p1798
sS'9D95C7A3996CD9AFDEA5C99F872BB97F'
p1799
S'85D37096EF9E179210CF03D28AB6C4F3'
p1800
sS'ED32FAA85754FB0A4BC9FBFADE13F734'
p1801
S'8B91A66EF66DC00DAAC360C1CAF44316'
p1802
sS'5FC9E976C922DB7C4E67394598BC07E0'
p1803
S'720C1637EC413AA781A963C1E5C4663E'
p1804
sS'E4A07AA395F263DCF47BA8DE7679DA44'
p1805
S'DB2AD55A8A33C4BA3E2572A0F2D1A258'
p1806
sS'BBB973AABE343AA59E75C07818C9A81E'
p1807
S'720C1637EC413AA781A963C1E5C4663E'
p1808
sS'31162A9E63221840897F9FB2ADC1AB90'
p1809
S'720C1637EC413AA781A963C1E5C4663E'
p1810
sS'F0389CEFCC30B17F641AF1D36661DC94'
p1811
S'3D0AAF4731F0FA3B222EB984113E53BF'
p1812
sS'3F9A31FD16CE5E30194C338B7B8C0B1D'
p1813
S'2FF075ED2A68D4CE9FF6ECBA042E9D8F'
p1814
sS'021CF7DE8225C1F978CBE5A954612E00'
p1815
S'3369CEF81EA34BBBB248D68AA2ED9C86'
p1816
sS'5D497D975B8F4A1B4F626E9338718B44'
p1817
S'AC87D3DBC81416CBEED31F9361FC049B'
p1818
sS'3769D42D1A65768BDE5F7E90A0D6B5D7'
p1819
S'287D4324E3389C5B97DE9064DC68F7DD'
p1820
sS'58918A1F4C33E4BBB60494796E8B4503'
p1821
S'C0F23BC51D7BA87F48E3F853F4047B41'
p1822
sS'1FE6CB92853123AA4890466E4B004AAE'
p1823
S'26DCB5937890E3914F9BDA2000A98CA5'
p1824
sS'FBD1F48F9102D79791A5AD2D82F73C33'
p1825
S'50C68A9FDC4510EF6CC433240C223FC4'
p1826
sS'0F23E02D9DEE162BFD326138DBA0C4FB'
p1827
S'287D4324E3389C5B97DE9064DC68F7DD'
p1828
sS'C7DE6B5B0CD521B62B10F0B7203BFD7C'
p1829
S'ECDF8D4AC38D720E5C6CF4426D7CD5AE'
p1830
sS'6E4C248EF2ACD6D136821F712E2B3331'
p1831
S'39B679CB52CC944840E62C7F1AD0BBDA'
p1832
sS'8B6359DF5E4230D6FF06D4E9568DFA86'
p1833
S'720C1637EC413AA781A963C1E5C4663E'
p1834
sS'FBCC83FA974B95CF988FD60945C0E7CD'
p1835
S'347B718FBDF9896E638CBAD71FCA8ADA'
p1836
sS'395058D21C357C65FF9A97C5F68BC3B5'
p1837
S'A5F543AD68429AB61C75A40F7D635602'
p1838
sS'FB28EB2E424AE0EA3F08309A8AE0865B'
p1839
S'287D4324E3389C5B97DE9064DC68F7DD'
p1840
sS'F7517857D7B2CDBA9D43D59B34942BF7'
p1841
S'720C1637EC413AA781A963C1E5C4663E'
p1842
sS'A8661C782F79F67DEAB34EDD45EC765B'
p1843
S'3CE7A429D55439AB85D1913466AF2795'
p1844
sS'FA862AE60A741AC870ED94F954FAB4B1'
p1845
S'FCBCB1D8DE245A11A72F1B76719CB46B'
p1846
sS'53A38124C1E9A2ACBE8CD3FB27D7F47C'
p1847
S'4CD9834712880F549BFA6EC832E312EE'
p1848
sS'59EA2442CD85668FC02DD41EBF741824'
p1849
S'649B2857AF6562CC249CF61A1068BB48'
p1850
sS'83270F12A40626B79137C3BFC669D28A'
p1851
S'A94618A2D164DAAF80161469EFEFE0DA'
p1852
sS'81138859D35FADE023E2475400058F4D'
p1853
S'D563B59AAF19AB748BE8ECD17C268825'
p1854
sS'0D46043FF6291FA4BD605F465146445A'
p1855
S'9F0DB015B2897063DB62F76A93885982'
p1856
sS'0CEF14E4783AFCAAC185D97C7F0E3A12'
p1857
S'720C1637EC413AA781A963C1E5C4663E'
p1858
sS'DE26FC86A9F65CF3750F9D7C5AE01158'
p1859
S'87386BE49E61A60DA13195C456C72679'
p1860
sS'E8A1A6038AF31D73FDB79AB82DA1F6E1'
p1861
S'2AFF656252D873D7B2DB7FDD80CE7B73'
p1862
sS'6B3FE63D6D671DD6DB1F2A84120DD59A'
p1863
S'CA0A10345B303CCF03DE551BB678A1A8'
p1864
sS'F7B1718CEE0C16D63852B0033D2A65CC'
p1865
S'720C1637EC413AA781A963C1E5C4663E'
p1866
sS'2665CAE7AA32D5A79D7C6EE8E2B0EC94'
p1867
S'E4F7E35A6984E8D48CC0A374B8D0D480'
p1868
sS'1746F2473EA645C42C9ABB315A149257'
p1869
S'720C1637EC413AA781A963C1E5C4663E'
p1870
sS'57E2DA6E3EB34C7E9A2C8E5D91682788'
p1871
S'AA95457A6D7090DB95218BEECF6BA638'
p1872
sS'325178558AC5ECEBE39F59D25EBDE89B'
p1873
S'287D4324E3389C5B97DE9064DC68F7DD'
p1874
sS'460F07156AEE352EC4D6506543E01D2D'
p1875
S'720C1637EC413AA781A963C1E5C4663E'
p1876
sS'E5D0461268B96AC008271B8DD22E720B'
p1877
S'287D4324E3389C5B97DE9064DC68F7DD'
p1878
sS'875F1D959041438BFD15534A99955CBF'
p1879
S'B33BA6D332862F751A35998D3ED81118'
p1880
sS'FD6063AD8EDDE804E68A9B7CEF85DCF6'
p1881
S'93DC328072A4CC1D43FEC1233661E059'
p1882
sS'33D500AD9FE8475BC69B26BEE18E5E79'
p1883
S'DBAB7641FD1733974E9D25CD45A28D09'
p1884
sS'348A57806E50F269705BDEDC4019EE0B'
p1885
S'CB3EEB6ACDAD450709D8D8D2050B7492'
p1886
sS'86326FED57BF7070BB815AB84EC9AEA3'
p1887
S'F9C28B561BB13CBD7AEC35531573FC16'
p1888
sS'BAD6A5F4D4B8C7365B4135BAB5A77856'
p1889
S'287D4324E3389C5B97DE9064DC68F7DD'
p1890
sS'9D7AD8A75B4D26A11481E5AD74A8B6E6'
p1891
S'76FF915A13070DCADF3D4786F9394D1A'
p1892
sS'0A65414C97FF26CCBB260E9CABAC6FAD'
p1893
S'5D8D5DBBF6B7AD553A60F7491E34B34E'
p1894
sS'AE0CFAD9B0391DFC289E5C8177D06457'
p1895
S'654F30FFED1A1D106008A61EFD65F1E9'
p1896
sS'587554E47D23A9A02BD041AF396FBC3A'
p1897
S'469CF6842EB1332B9257770B90F95B3D'
p1898
sS'A5C361314BD3E125E91EDA3EC96FD7EB'
p1899
S'720C1637EC413AA781A963C1E5C4663E'
p1900
sS'70154F45C86DBE31D814C6CE8008C8BB'
p1901
S'287D4324E3389C5B97DE9064DC68F7DD'
p1902
sS'245164B7E509DA095B206B84D1D40471'
p1903
S'E7DDACAA334E093CDBCBAB767CAA3B4C'
p1904
sS'F697A22AC0EBAA563529D30CC3063891'
p1905
S'67BEED30CE9AF136F60DD07CE82EF37D'
p1906
sS'88AD5E1A766B64928E72F5BD53953DD5'
p1907
S'287D4324E3389C5B97DE9064DC68F7DD'
p1908
sS'B4A7911B2106F4F21891B6DA46AAD472'
p1909
S'4E337841E04233A012374252DA2A6C3C'
p1910
sS'FABAB326EBDC409B208B8A6C7B131281'
p1911
S'287D4324E3389C5B97DE9064DC68F7DD'
p1912
sS'244D4C1109680628C66DB0742343B646'
p1913
S'13E39F2E712BEDBC497DBD19F410D73D'
p1914
sS'4DE73E74D837EAEFF9D970395CD3969B'
p1915
S'7DDB11277FD31E5D5A09E28B7B73DEBF'
p1916
sS'07BAE4F37805B130F9AC4C35076A2803'
p1917
S'4DFF8043B9B673F8DBF04CA2BB2D3BCC'
p1918
sS'80CB4FB268452505FA2C4095138CFAE9'
p1919
S'DC6B918570B3B5A68FB89AA22A0FBF24'
p1920
sS'13BB06128A8407799874CC4E06B5510D'
p1921
S'02FA4D0A717A6477404C3B2C359AB57E'
p1922
sS'6C659E30BC5986739E57F72C53C2BD3A'
p1923
S'7C36498F9CDC065D1C8B6ABBA24AEDF0'
p1924
sS'4EDEAC3CF87F7692E07936483D2CAC17'
p1925
S'287D4324E3389C5B97DE9064DC68F7DD'
p1926
sS'09768DAADAB7134E5AE7C65C6DB36C31'
p1927
S'36FAAC562BDF8D47945CF28DAF878ED4'
p1928
sS'9916202300F8FEBFE5A6BFC5852C9FE3'
p1929
S'4685BEFFBF22B93365BD8ABB639B23EE'
p1930
sS'BEB1C76FC0588BE24ACBAB902B023495'
p1931
S'62D62BAD4AF1FADB8F7057CFE95F5AAA'
p1932
sS'1B11D9079FD12B66990EA883A3250F79'
p1933
S'3414DA49044C82AA0765B741C4AA460E'
p1934
sS'AAAAFD4ECC99677F3B03DD7A973740DE'
p1935
S'F329AB7BC0CDF01D17AAF5B9812DFACD'
p1936
sS'2CD08C26BB79CD50DDEA0CB6C36AA3E8'
p1937
S'6832A879481F7E3976841E81A8EA374C'
p1938
sS'2291F2748D432D128F63E3E6C4F7A28A'
p1939
S'287D4324E3389C5B97DE9064DC68F7DD'
p1940
sS'ABAC4C7552145991870C87DD040624DE'
p1941
S'FFE0F392003D8F8A21C2C61E50984107'
p1942
sS'0E757F23D988126AE39EAEF3183E62DA'
p1943
S'C28F29B6F5167BCD6F3D1AF8B828A96C'
p1944
sS'6215FA86B6A61D3F572132605B3DB8A7'
p1945
S'8CC63D066D77FA50BB66E77939B2AC30'
p1946
sS'AA0F352AEE85CD967A418F831D3FE321'
p1947
S'4A65461E0738A05F6D591FA273B68183'
p1948
sS'4EC1208E1C1608F178DD4B132374064F'
p1949
S'D7EF6F1BD60464D6060E34A20E1ECC9C'
p1950
sS'9E78C13875E1B0A020D6EDA912836B1E'
p1951
S'923202B1D7EEAA98E7BB4AA435B10964'
p1952
sS'F62BD76E4E7D1DCDF0B5A872DB312BE4'
p1953
S'720C1637EC413AA781A963C1E5C4663E'
p1954
sS'272B50A6A3E22459EB197238ECC0C400'
p1955
S'3EA5BE5C18CF8A1A5B4CB8C2EEE5B0DA'
p1956
sS'E5770A8A3D4DFA66B0CB543AE82D299F'
p1957
S'2BCEBD1E7D3367927EBD42067E54CAD7'
p1958
sS'839EAC9204AFCEEF528EF81B1F993661'
p1959
S'287D4324E3389C5B97DE9064DC68F7DD'
p1960
sS'BB122D8008CCDF1D24B41E219F7A52A4'
p1961
S'720C1637EC413AA781A963C1E5C4663E'
p1962
sS'B19C4C47CF494338B8F49033A4841513'
p1963
S'E5213015ACB7EB9BA99B5797C55DEC5F'
p1964
sS'7AEC25538784B30134140783799AC2C7'
p1965
S'287D4324E3389C5B97DE9064DC68F7DD'
p1966
sS'29624842321D534AFAD6D2B4E540D6A2'
p1967
S'720C1637EC413AA781A963C1E5C4663E'
p1968
sS'AA4DFF0F6969CE23FC6B1FC903076435'
p1969
S'720C1637EC413AA781A963C1E5C4663E'
p1970
sS'1AE30A3D38A6AA2A90AF768C394C32F3'
p1971
S'287D4324E3389C5B97DE9064DC68F7DD'
p1972
sS'277A367F022E3684C0814B88DF1AEBC8'
p1973
S'720C1637EC413AA781A963C1E5C4663E'
p1974
sS'B84E1388646E1BF1B2A54CB70F232FDD'
p1975
S'287D4324E3389C5B97DE9064DC68F7DD'
p1976
sS'7C9A55EF08E05B2C46B33363BD04326B'
p1977
S'35912CCD50DAF73EDA9B59F50150FDDF'
p1978
sS'AF93353F532D810463221F528B1C4BC9'
p1979
S'720C1637EC413AA781A963C1E5C4663E'
p1980
sS'4CEA4AE723AB014BF843DC6FA45F4BD8'
p1981
S'B92466760EE76E41F41F40E7F0BC8BAC'
p1982
sS'734811191289450B6842FA09EED53C69'
p1983
S'485BA2BA1F630BD8DF6FDF585FFCBE44'
p1984
sS'A9F816D75D5FBAB13AEFE55F69CF1BAC'
p1985
S'A9D049C1D28986115B97FA53F780B7AF'
p1986
sS'724DD40609F4E141A4E2DD61C8E8805D'
p1987
S'350D9104B6AED3EB2B37D9169EE09458'
p1988
sS'1E5175B57674E951A5FCD4A2E0BDDDE0'
p1989
S'74A1F58A657718CDAC3B501962A45E29'
p1990
sS'4F83BC7755D506F66F282ADA8627BB1A'
p1991
S'287D4324E3389C5B97DE9064DC68F7DD'
p1992
sS'E0B6754A93BEAF03A49B017C953CB805'
p1993
S'720C1637EC413AA781A963C1E5C4663E'
p1994
sS'92E8ED5837BED7EBB622D45ABC0980DD'
p1995
S'DF6777BFB5D65EED2A4CC7EBDCCE1BBF'
p1996
sS'39E0CFF3BA996EB2050C4F421A9038C9'
p1997
S'D289A7C8FCCF0D8F252F7EEEB78E03C9'
p1998
sS'017EEBF5914F09D87EBC410694A5DAAD'
p1999
S'5D8D5DBBF6B7AD553A60F7491E34B34E'
p2000
sS'74412F2D81368C59C0C07E59BBA7D43F'
p2001
S'28F9CFC54EDFD63727C31C69E64846AF'
p2002
sS'B04F16A9D9E41C5778726C5D5A04F27E'
p2003
S'11F5559D8353F98E61991BEB5D694C09'
p2004
sS'D384CB77DB2B939D192548C4A52FAA46'
p2005
S'287D4324E3389C5B97DE9064DC68F7DD'
p2006
sS'7EAFB7BF30E82B34D5913E6B0D69BA4B'
p2007
S'36D57F8E278235D18BBB13ECE7A33FB1'
p2008
sS'9ACB2E5FFAF3A4800BCC747D0FCB848F'
p2009
S'ED5B963649C98F4C48C9E38F6B2D7A03'
p2010
sS'11965F3E213D8B9B13124526179F7C39'
p2011
S'56DC97C8CEB2EF6B48D296FDE44FA975'
p2012
sS'8138A864F020C4CC4DD71F5DCC964947'
p2013
S'720C1637EC413AA781A963C1E5C4663E'
p2014
sS'362FDD78682AF0AAEDA58032F297F545'
p2015
S'05C27D936E2A6A66CE36ECA0E91E4430'
p2016
sS'56565D6F6F75979409D8A6529CB079C6'
p2017
S'287D4324E3389C5B97DE9064DC68F7DD'
p2018
sS'CDB8A10A1771232950770803D4CDC09A'
p2019
S'45168C36486FADAD8F84B202E05A762B'
p2020
sS'D190EF93BB2A3E8BD98CBF28B52C3DD6'
p2021
S'13E39F2E712BEDBC497DBD19F410D73D'
p2022
sS'C39897A89AFCD64D4266FD05E4DEEE02'
p2023
S'720C1637EC413AA781A963C1E5C4663E'
p2024
sS'10D71ABB5B32AD88F3D3FCBA62CDB3DF'
p2025
S'8CF1661781A9BE28C5057DAD9B4C44D9'
p2026
sS'834728EBA8B8536157B3FA921A7FE6DE'
p2027
S'720C1637EC413AA781A963C1E5C4663E'
p2028
sS'051638E2CFF0824C76010601A8BB78A8'
p2029
S'ABCD89267404191ED8C3D3D8865150D9'
p2030
sS'00B2F8C78EE4387B533E979642BDD998'
p2031
S'7A3CB031A36AC609F28732CD09C47EA1'
p2032
sS'DC6A9ED1CD9EC5EB7760DFD6B8104862'
p2033
S'DAC06ADCCEBA56A71B4773528C2F7ADC'
p2034
sS'D0100776A29BBEE47B3DFA99C35471EB'
p2035
S'055AE11EFDD240C071963BB44D6BE923'
p2036
sS'411FC948B5B6F0E66DDB5FBB308B456C'
p2037
S'720C1637EC413AA781A963C1E5C4663E'
p2038
sS'7C9D1C9EA4F1B7280AFD19E2540EA3A2'
p2039
S'720C1637EC413AA781A963C1E5C4663E'
p2040
sS'67DFDA84DA59D2A38E6F43ED3FEF34CF'
p2041
S'720C1637EC413AA781A963C1E5C4663E'
p2042
sS'EFD0F204036B45F1D50E22E6B8FACEF7'
p2043
S'B16FF29EF6281314357CE76FDA6E6596'
p2044
sS'2DB8E6E53D288D74E5BFD8735E058772'
p2045
S'194C90AB709055FDAAEFE971CE506DD7'
p2046
sS'C70E23EFFB5FDABC8D0E108FDBAA41EE'
p2047
S'287D4324E3389C5B97DE9064DC68F7DD'
p2048
sS'4174FAC269346894308368D625946BBD'
p2049
S'66E829FDF2BF7749F2F864194ACE5E08'
p2050
sS'3760EFE6BF713589F917285B06525F3B'
p2051
S'9CA0360AE440761F5C7D19A7C1AD5445'
p2052
sS'2259CD76427FD90313B2605C89B7B26F'
p2053
S'720C1637EC413AA781A963C1E5C4663E'
p2054
sS'508D417478090BF2595075D7D3139448'
p2055
S'02179E99B6571985408B68985154E9E4'
p2056
sS'DF9BD2FC1EE20711F41220043F5F2D13'
p2057
S'A39698BA90D976EC5292B58DBF06A890'
p2058
sS'9F18BB360AD5A21DF2CEC9348E8C386A'
p2059
S'287D4324E3389C5B97DE9064DC68F7DD'
p2060
sS'54C8D5D518A59682CE697371C14B7B30'
p2061
S'720C1637EC413AA781A963C1E5C4663E'
p2062
sS'B5AC8D1A589581A7CFF15C9002ECC196'
p2063
S'5F86825C8CD4A785A6B0EA3E0862FE7D'
p2064
sS'430A752A61645A5434D2BE4E02C04C69'
p2065
S'A1BB4D9B70DBA9D7C9F57625A1FEBEEE'
p2066
sS'FEE1DACCD591B3DFCF7C72931F4D8D13'
p2067
S'720C1637EC413AA781A963C1E5C4663E'
p2068
sS'7FD2F5A4B4FAA767F376B69C4A60EE1B'
p2069
S'31D86AA4198D0C7F4F2C0FC25D844DE3'
p2070
sS'2C9BFBA1A142A34FE6EB6169C1837636'
p2071
S'57B7F75C5566034B2E6A1C8D6ED929CE'
p2072
sS'266FF1DD53E059745B049301F1C52420'
p2073
S'DF39309132FF2EDDE04EC96D6B76DBDD'
p2074
sS'13C0A0C7234818E5F9F8C352A4DCA20B'
p2075
S'720C1637EC413AA781A963C1E5C4663E'
p2076
sS'CE59F1E0823DAD541712652FDC0BEEC7'
p2077
S'287D4324E3389C5B97DE9064DC68F7DD'
p2078
sS'6F8BA58C0D3459E4F04E2E3AD49E0FB2'
p2079
S'287D4324E3389C5B97DE9064DC68F7DD'
p2080
sS'74FD40C98C0C3996913F0A75B3FAF67C'
p2081
S'F55FE5FF8F873117A0756CA923FDF6D0'
p2082
sS'4342FA52A8AE827BD9836B917DBAA988'
p2083
S'287D4324E3389C5B97DE9064DC68F7DD'
p2084
sS'A02A64B7EBA18F75976A6C5921DD76A4'
p2085
S'F439928A1B1A4872842A5A2E299BBC33'
p2086
sS'A535362E50707F4E42651EBF8C16F832'
p2087
S'287D4324E3389C5B97DE9064DC68F7DD'
p2088
sS'B2CC1759BB9A3E1668E77F68A31611CE'
p2089
S'AF06DE3E4613E822190A4D70045EEC25'
p2090
sS'6879719D90ECFBC90635CF26A693C686'
p2091
S'6622562C40CF8206387FC8DE803B74AF'
p2092
sS'FCC50B71D4FD62098DC4436F1348367D'
p2093
S'720C1637EC413AA781A963C1E5C4663E'
p2094
sS'31AA6DE4EBE17712AA3B4C49C4681246'
p2095
S'287D4324E3389C5B97DE9064DC68F7DD'
p2096
sS'55E4293BA4E5153FB45AB6581EFE16F1'
p2097
S'720C1637EC413AA781A963C1E5C4663E'
p2098
sS'4BCC8251510C16635155984361E1F212'
p2099
S'BD99C3DF0DE10E338B7D5FC1BEF071E2'
p2100
sS'DE8966B1BEE3BE0CE8780E279E8A65D1'
p2101
S'71772D0E4A52A803BA204478C78BD04F'
p2102
sS'8AD4617C382AB7B8EB146486BB7C412C'
p2103
S'287D4324E3389C5B97DE9064DC68F7DD'
p2104
sS'6492DB3B39D28B84FE9AFA2190930301'
p2105
S'287D4324E3389C5B97DE9064DC68F7DD'
p2106
sS'B24F45987AB3317830588B7456247901'
p2107
S'720C1637EC413AA781A963C1E5C4663E'
p2108
sS'718370A45F1ACFA9408F92CF599590D7'
p2109
S'AE6535D306CC4FCDCD997B70D573D26F'
p2110
sS'496772A4A931D86CA2338636292BB690'
p2111
S'80C5DFAB93EC140B2FEEF53749DB77ED'
p2112
sS'9A7EC58A6BA76B951DCA8D962E5697C8'
p2113
S'720C1637EC413AA781A963C1E5C4663E'
p2114
sS'C58348F604112E3AD9789E8B5B53E3B9'
p2115
S'72DB5D270C769253DC567293C0496C8A'
p2116
sS'8A853B45BDFF54D68930140871B7F532'
p2117
S'720C1637EC413AA781A963C1E5C4663E'
p2118
sS'3A6C3108DF2EE58ADDF720580E7B1EC2'
p2119
S'720C1637EC413AA781A963C1E5C4663E'
p2120
sS'01CCEDA2A542D1EBCA2EB2B5B56D1DB4'
p2121
S'50147B5F829833949E1D5DA97BB81A22'
p2122
sS'A3D2FD1A4B3A5ED76442866B2FF028FE'
p2123
S'720C1637EC413AA781A963C1E5C4663E'
p2124
sS'78EFBCBADAEEF9D53319DD2EF155585D'
p2125
S'720C1637EC413AA781A963C1E5C4663E'
p2126
sS'B2BC3CA83C0DFB79AF277A0FD2B55A7F'
p2127
S'12A275536BDE3AD48412C706C04B297D'
p2128
sS'1EAEAE84F1E0E2E1E3CFE5DD541B0D50'
p2129
S'287D4324E3389C5B97DE9064DC68F7DD'
p2130
sS'C820A62750C467ED6C15D9D04B192157'
p2131
S'98DDE76F593E46F176B3D79E2F8A3181'
p2132
sS'CB402C018279C52390065CE50327B2A2'
p2133
S'287D4324E3389C5B97DE9064DC68F7DD'
p2134
sS'ED102F57FB3D048740C554A4CC9A7BE9'
p2135
S'287D4324E3389C5B97DE9064DC68F7DD'
p2136
sS'9E9DEF497FA0FC1F1D6976FA66B55334'
p2137
S'2606C10CD2CA19D1B3CA4D097DD426AD'
p2138
sS'6C007F757C53750A53041918F8B3E9E8'
p2139
S'8E297D5B61BA9E8EFB433EAA5179F3C0'
p2140
sS'AF387FB5EF8EC2F23E379E5F62429996'
p2141
S'F5CC0326C6E78A1E94856ABD6D5642EF'
p2142
sS'3A506B82D11D2AFEADF6995F1EB86BBC'
p2143
S'720C1637EC413AA781A963C1E5C4663E'
p2144
s.