(dp0
S'EE03303713642C0DFDAB5DB5A87D090F'
p1
S'720C1637EC413AA781A963C1E5C4663E'
p2
sS'2A1BDBC63D956BA3BB63B227F61162F9'
p3
S'720C1637EC413AA781A963C1E5C4663E'
p4
sS'6AC5906D7A1DC7BC386401D15339414B'
p5
S'287D4324E3389C5B97DE9064DC68F7DD'
p6
sS'CF22028F18E3B44344591C64B7CAEDFB'
p7
S'B6B6D417BF997BD5E4EC8C734EB9600D'
p8
sS'EB725745F5BDB528CB09B326412C9392'
p9
S'055AE11EFDD240C071963BB44D6BE923'
p10
sS'1C01143DFAA11E6DC89EF4D92AE73FC6'
p11
S'A94618A2D164DAAF80161469EFEFE0DA'
p12
sS'2F6C2ACF8C281160EED32BADBABE46A8'
p13
S'8E297D5B61BA9E8EFB433EAA5179F3C0'
p14
sS'BDF07637EB3218DECF4B2219385C24A2'
p15
S'CABDE26299E0AAEEA6D84BDD1DE93C18'
p16
sS'C0714E883FECA67F63A9053DF84B8007'
p17
S'287D4324E3389C5B97DE9064DC68F7DD'
p18
sS'25975B698EFEF0C30DE5E0A343AA35DB'
p19
S'AE6535D306CC4FCDCD997B70D573D26F'
p20
sS'7E41C599C3F8EF4399327843C13410AD'
p21
S'FFE0F392003D8F8A21C2C61E50984107'
p22
sS'7ABAFDE518045E06A25B4A267EE5722A'
p23
S'4DDB8FC9889FE66630B4FC92431D2ACB'
p24
sS'CD57BD4029F0AB52D4DD548463A26150'
p25
S'A0AA70E78ED6C4DB9BB2FA8B98BD1F47'
p26
sS'728E9FAC1C9F1719A49251566D029E4A'
p27
S'CD681E2F9CBB36D68B646FFA0D6F156B'
p28
sS'1CAFB2D5F6C205B2D74F320A8B5B3B91'
p29
S'F0EDD2CA8EA3FB89071D2809877EBB1C'
p30
sS'FF26FAB1855E929A0C119193E2ED6986'
p31
S'3CE7A429D55439AB85D1913466AF2795'
p32
sS'B33330770A9D67C31B5167666B41EA46'
p33
S'51FD84DC1C3C0B2B63DF46DEA55B5252'
p34
sS'B6594B7F63DF9E8C33B7C14C4E41EFDF'
p35
S'3F5847E26F87ED21272485F0403704B5'
p36
sS'F81CEBF8C87EAE1374D3936909335200'
p37
S'2A9AE9AF0B04406C8A0A654F27428A15'
p38
sS'84977AE240CF38C229CD6BEC2C657AA5'
p39
S'4685BEFFBF22B93365BD8ABB639B23EE'
p40
sS'DF5AECBC93CD30F84C41C9064FD70FDC'
p41
S'2606C10CD2CA19D1B3CA4D097DD426AD'
p42
sS'63B68E4E47FC36A99C3EB241520E58D3'
p43
S'720C1637EC413AA781A963C1E5C4663E'
p44
sS'BC445EE5030AD72BC8F1BC1D68C57B82'
p45
S'287D4324E3389C5B97DE9064DC68F7DD'
p46
sS'CDDC0A3FBDC3AB1A2AB6E84F9530F29A'
p47
S'A94618A2D164DAAF80161469EFEFE0DA'
p48
sS'920A06708D83C2319E9140A027E7F9AB'
p49
S'53AAAD1AB8DA729DEDF672A5C86B2258'
p50
sS'0AEFC1514A9D8F70C86AD9AA47AAC800'
p51
S'B4924707A09C5BBE4752FCB41D685819'
p52
sS'3CC749AFCBD7F6708C383B5FC4C8AA96'
p53
S'8B91A66EF66DC00DAAC360C1CAF44316'
p54
sS'0277E0DA52C73A90CD6C0EC2DE5C8D12'
p55
S'5D17E785E322B5EF8CA814B434DD46EC'
p56
sS'F47852E6733FA658557FAF21EA1A605C'
p57
S'720C1637EC413AA781A963C1E5C4663E'
p58
sS'6E047B7AC4A9E98C8E87D5323A39B575'
p59
S'9706CB411E7A9957EA2720C4F5D7F911'
p60
sS'B7D63B13BED217FFEE5E66CC997D6E8A'
p61
S'F1F51663FDEE524B003ED92CE608C8D1'
p62
sS'A254BE841DED43C5A23B442BA896A895'
p63
S'2D08B84546AC3A5EAF60A473AF9E04ED'
p64
sS'3583277AD0B9FD9FAEA33D77E49D9911'
p65
S'306498A9958D67D1A6E3000ABEB4EB14'
p66
sS'287DD0D50CF89C77F7E104B4A6A8FA71'
p67
S'E65651516837DE815BE96F311ECB12CC'
p68
sS'2B36D171D9452F86525566E23F4A04B2'
p69
S'06D63799C76236FF13165D677C10F871'
p70
sS'7016E377DD56EBB9F0CB75BC4156B239'
p71
S'51AB6DFD7C5E1F4864DBD176BADE3A5E'
p72
sS'60CE8317AFB5BD178C132486FDA75799'
p73
S'F968F07885A56D034392BE17AEAF2CB2'
p74
sS'11C8636DA882545835D37BCFF84AA1BB'
p75
S'287D4324E3389C5B97DE9064DC68F7DD'
p76
sS'6E477059938D319A5CD2A9C0D042C749'
p77
S'3F47A3CDA1A437E70DC0993E7506BDBA'
p78
sS'B6B9193BC9DF3243B198895B781BB218'
p79
S'6F5DEFE0FB868A9F363DB73D6361967E'
p80
sS'BBADD82A820C2E637233ACEDA0D84595'
p81
S'287D4324E3389C5B97DE9064DC68F7DD'
p82
sS'E69614F0F6F217FE9346F26DBEE58E6B'
p83
S'287D4324E3389C5B97DE9064DC68F7DD'
p84
sS'B48AFF751A20DDF1FA6F9BF0AA8ED358'
p85
S'720C1637EC413AA781A963C1E5C4663E'
p86
sS'97FE14BF8FA337BB7F41600534573AD0'
p87
S'B6F13CC25FF9B47DAEA8A4FD872B3C65'
p88
sS'2FE46352B1624F003F6B6216FAA6D398'
p89
S'3A3B7CBB781742DE8B0A1B7D27C73DEB'
p90
sS'D02366BFE7D2E8D7CED9FF7505B644D8'
p91
S'287D4324E3389C5B97DE9064DC68F7DD'
p92
sS'31EA78D98AFB4BEE0E040A70BEA86185'
p93
S'287D4324E3389C5B97DE9064DC68F7DD'
p94
sS'AB1E0470BA568FD73DF897E3DEC14F6C'
p95
S'6D571723C2ECD890828E9A3DA2CB4743'
p96
sS'209BB1D81C3B477E1318F737907C96B2'
p97
S'E5213015ACB7EB9BA99B5797C55DEC5F'
p98
sS'FACAAC1BDA7EF4320161BFFB5A316D99'
p99
S'4E163573EFF3A2238CCF55602C29ABCC'
p100
sS'6725F9C4C458E4D74DCA9B9265D33A5B'
p101
S'720C1637EC413AA781A963C1E5C4663E'
p102
sS'7A333E119988A62BC2661C7880D3CF49'
p103
S'70842DF428C84AC5EEE1CE7CF5AA176E'
p104
sS'E4ED687F9175D2E30168A9E3FBC7EF8C'
p105
S'7DA76B285D4FC8A087480F178D4EF5B7'
p106
sS'A19DE8FF2E36842E223EFECF2F7DDB30'
p107
S'F8DA2692F3F3EC0F3AF4F15D8BFBA15F'
p108
sS'AB431C130268C04FFF93BE3CD7D410BC'
p109
S'A2701FEBF98FBAC2D41763681AAA1E21'
p110
sS'32D84B8547A931738EECBD01CF03DCAC'
p111
S'4FABA093309EDD17A19FF9EB048F170F'
p112
sS'859A709134937FD78C237F1E06E05094'
p113
S'034548B3971600E49457412FD95699FA'
p114
sS'CB75962D4EE02CA0ABC5C2054D07BDF6'
p115
S'02FA4D0A717A6477404C3B2C359AB57E'
p116
sS'31C82827F16393CDB243EBE6088849E8'
p117
S'23E95C98FD4776ACACCDAD77C0005019'
p118
sS'19EDBA166D72DA5196064B9769FC5FC2'
p119
S'F224EFBA9394744C0D8F9F2EBBFF6E9D'
p120
sS'03E59BCBED456EFDDDD8353E4311D107'
p121
S'287D4324E3389C5B97DE9064DC68F7DD'
p122
sS'743B457FD5941EFBAF577B5A8346E5AB'
p123
S'21BF2850A118BBCAB2E6B3995BE1C02F'
p124
sS'31A3C2145687EF5B86B0DE2D65BAB4BB'
p125
S'2B63CC2B813CFDD053F47507A5F51FBF'
p126
sS'1642D5C0435E7B6E82C322533AE4822E'
p127
S'720C1637EC413AA781A963C1E5C4663E'
p128
sS'66A06528CA4658F5F88453EFD7D25EDE'
p129
S'FE92DE38A4A3F408AB296C44CB5E9E3D'
p130
sS'824A37F1DF559ED436C5D733D42CCAAF'
p131
S'D11D2BF3659A6F0492D9A93A665CE7E7'
p132
sS'892DE52D0A9FF7971F0CAAC872A74469'
p133
S'F3CE14614481D1E12B02D3B1A9401577'
p134
sS'3E31ABA017864008B0BD1EC1FAA13EC3'
p135
S'F7F7A19ECC1382C3D226C118BB53F099'
p136
sS'D55E55A81F9156F9F1A303B3B4C07243'
p137
S'2F48A0A94E31128807BC1021A863EDFA'
p138
sS'F97CE242871B166FA597345337F7EC2A'
p139
S'E475E078491EBEDFAFB867676378EC5D'
p140
sS'14712C832A337B27EBD000EC03B8162F'
p141
S'CB2175964A64E1AB02431FFE840FAD8D'
p142
sS'F5BD3EB2CCFA0D6F432C3145AB1235CD'
p143
S'165C6BDD6B804D4E9EF14099F0A43F0B'
p144
sS'CD5547CB627BB5FCA091F44B291BFA2C'
p145
S'287D4324E3389C5B97DE9064DC68F7DD'
p146
sS'08424E8279FD081945F0A18189AB16EC'
p147
S'367012F8159648C6402A4435B4560BCB'
p148
sS'3860A011F2538FBD800B2B35CE252376'
p149
S'F329AB7BC0CDF01D17AAF5B9812DFACD'
p150
sS'4C29B39A763F3D2617FD58B460B309E2'
p151
S'DA919DC4F43A10B08967F4394B90DF35'
p152
sS'890D58CC77B81C43848C9AAE530DEDF4'
p153
S'C28F29B6F5167BCD6F3D1AF8B828A96C'
p154
sS'16A6B222555C83E6F3BD67B5197760D2'
p155
S'A28E21F24C9F546A89849CBA604881B5'
p156
sS'A768B3A8D9827FB6D195533FAD163763'
p157
S'5430D51E0F03DC22740108270588A221'
p158
sS'9C78BAD263385271391E48536CA85878'
p159
S'9132889767B9A603BF71692962E44230'
p160
sS'9E2C38CFCF1B5AA6817D7B9F148CC80B'
p161
S'A920F7D9E53AE72EE49FB92D68E9AC13'
p162
sS'3A71DD02EB9634C807E8502EF9C24EBD'
p163
S'8D96E7DCD51732DB4141AB8130B19C79'
p164
sS'C5F698CA94C490BCD788FE4E1C28CD54'
p165
S'C89203EE98C18F88536B220CAF915266'
p166
sS'F2E45B96FD37AD45F4D8D082F422EC4D'
p167
S'720C1637EC413AA781A963C1E5C4663E'
p168
sS'47998EE92A51D58051D639CC54118D72'
p169
S'2E53B580257123F62AE7BE68BBADFCFA'
p170
sS'A741E6B506B5B0965AC73DF58EFE974F'
p171
S'8EA9B55837C3D0205A9785133D7F712E'
p172
sS'FC192DECA0034439F58E3559E412E43D'
p173
S'8D79FB18F7265F1B79E640AB9C72CAF2'
p174
sS'F580A7659DA1BFCF2151FF45563434EB'
p175
S'720C1637EC413AA781A963C1E5C4663E'
p176
sS'04F49A98080A65305953BD4934B46924'
p177
S'ACFAE27F956AAD09F092CB3187A871D8'
p178
sS'E66EF7A9B033C31031D117FE760ED22E'
p179
S'44E207C6DEA90F882C4F4EF28BF04E10'
p180
sS'189B9A04E9082D154C59B799B801157B'
p181
S'19E0BF3DD47E92D57BCD6F68D530CDBA'
p182
sS'613C0F3CB7BF6B54B3E4EA0F9A9448F5'
p183
S'5D17E785E322B5EF8CA814B434DD46EC'
p184
sS'A65F57331086032777064F0671D9232C'
p185
S'B5B154D140549427BE8F5A5CE4D5868C'
p186
sS'215003CD277B283677C32479DD7D8425'
p187
S'287D4324E3389C5B97DE9064DC68F7DD'
p188
sS'4F27D20BC924B85F31CE566E6FA9F713'
p189
S'96B695DFE56B33C5A8DAC802E2337A0D'
p190
sS'8982D04E8D65682D7C3F64759D453337'
p191
S'720C1637EC413AA781A963C1E5C4663E'
p192
sS'068E5678783282B152620F1CDB865438'
p193
S'2785B58949F44DB4922CED5BBEFE8E8F'
p194
sS'C6AADB8F50B372B2A89FE76FC6178638'
p195
S'5430D51E0F03DC22740108270588A221'
p196
sS'C5884DC4C6672124E134F03E8A7A68F1'
p197
S'287D4324E3389C5B97DE9064DC68F7DD'
p198
sS'D65BC7C6CAC3EDB47C217D49CACABE3F'
p199
S'EF89130AFFD0A64E638A3CC411A00038'
p200
sS'C2ECC171E6E65942166AF3B242227208'
p201
S'4452ABAB7493788F1198FC7C2439370A'
p202
sS'482BC680B55121FC663F2694491EC373'
p203
S'D9FF4999EFE92DF841AC609DBA1D1616'
p204
sS'11F88AF1DA568873C4121FA9C25F05A6'
p205
S'F439928A1B1A4872842A5A2E299BBC33'
p206
sS'07FCF2EE6401CCFEC6034BBE67B2E47D'
p207
S'7C36498F9CDC065D1C8B6ABBA24AEDF0'
p208
sS'D329D2AC05DDFD05D5D81494DF0767FF'
p209
S'287D4324E3389C5B97DE9064DC68F7DD'
p210
sS'9D94BDB7725DC63F40BC03624F7FA9BF'
p211
S'2A424D24C3D6A36C3E463EAE8606F5D2'
p212
sS'F6D28D82E468282850017D59E7C20294'
p213
S'A58DC9C3C605F6F82EB67EF9004556A8'
p214
sS'781D4483CD14E4FB4F1CB7DC3CEC6883'
p215
S'1D6BE1F27ECCA51EE00E0DCAC4DF918F'
p216
sS'871C80F99B58A877F40BD5FD7FCB4F32'
p217
S'91EF5AD0F59E7FDF5FFA8E72BADA78D9'
p218
sS'C3625EFBD44A9421DEA8382688AD5B03'
p219
S'EE4FF262BF57C418746D7E2F423B58CC'
p220
sS'4E4C42531B5DFADD6F14B482C13947EF'
p221
S'DF4CC8A3EDC72676743EF6E28687B629'
p222
sS'E96AA464C122F06D9779E41FEFEE7C66'
p223
S'287D4324E3389C5B97DE9064DC68F7DD'
p224
sS'50003D7672F9BB65B5DF58056B34D195'
p225
S'BC586C5762F44BD33B4E343B95B91C5D'
p226
sS'C981C1F7F5E93520336C0EC29CF12CDD'
p227
S'EB2B1C183C3F5F38A1D28ADF6657D4CF'
p228
sS'6D860B065B030FB64A0E13ABE1898444'
p229
S'4E66A3742591D0075E5141D8D077FE5C'
p230
sS'D08B9691128FA86412434C9FB2B15D95'
p231
S'1699FB0D29681E75790D29BB175B2150'
p232
sS'1ABADE220F76FB56E1382D21C646B6B9'
p233
S'87B4F3BEA0DB8B5DEDC3375DBE592D32'
p234
sS'D95652467A3C3A7BBFAA4D1E98D570D1'
p235
S'CE590D4818192FD95666C66919399376'
p236
sS'B3013784D7203A5BC5C1AF612F2478E2'
p237
S'25D05A0A5B98DB34946CD88548F3A50F'
p238
sS'5B817850B6FEF56701E4F96FEA0FE954'
p239
S'720C1637EC413AA781A963C1E5C4663E'
p240
sS'4FEF970D73686CA1EE30E77CB1F50E45'
p241
S'3112E39999FD97E4ED5BE917DB7CD428'
p242
sS'CA47DE8232A303CFE0BEC53A94D851F6'
p243
S'D1B3D2CDE23B1031BA09052E7096FB22'
p244
sS'972AB0B37471E87A6F2958B7A2CC0408'
p245
S'649B2857AF6562CC249CF61A1068BB48'
p246
sS'C8729A703D5DA29BE9A6656A3EE075D1'
p247
S'B6B6D417BF997BD5E4EC8C734EB9600D'
p248
sS'AEF404A0A85541C0570A44E6EB9A0ABE'
p249
S'4463B8E5DF58DB2BCFF9B1D27188EB61'
p250
sS'3A4BDCA9A6A6DB5F1D7DA1A83765AE92'
p251
S'4CD9834712880F549BFA6EC832E312EE'
p252
sS'225BACCB6F0FB53272B652B699EF7490'
p253
S'76FF915A13070DCADF3D4786F9394D1A'
p254
sS'25674E78F79B6066FA32F7196A742880'
p255
S'E05FB00FAF6AEC7AF6A57619C368F7D1'
p256
sS'249054A00A6EEC6C9943C3500B06EBD7'
p257
S'CA19A377661E7858D6DD376BEECF09AD'
p258
sS'441B1BF3891223DD8448347B1657BFB5'
p259
S'A94618A2D164DAAF80161469EFEFE0DA'
p260
sS'811B0683BDB4AE81F7819D4689B8B500'
p261
S'86C49EE55FAD49DDB0F5954379A74034'
p262
sS'809F81FC327633622414078C62A7A7C7'
p263
S'14A238AE90ADCA9B98788C6A267061CE'
p264
sS'E1B2A874085847842240266B4FA1F6D7'
p265
S'24B335FDEE7F89297E273A0C17D9BB10'
p266
sS'63357F0F4AF07AE7E3C38BE32B9D3732'
p267
S'2F48A0A94E31128807BC1021A863EDFA'
p268
sS'FC2B607DA738C43E78B55844716160B6'
p269
S'31D86AA4198D0C7F4F2C0FC25D844DE3'
p270
sS'4C57F453FD386D0612F2C202EBA1C362'
p271
S'720C1637EC413AA781A963C1E5C4663E'
p272
sS'B098A81079518968C403549F1ED188E4'
p273
S'9F62788A640767B5086E8470E1166391'
p274
sS'D15D0D90E97004CCA53806DFF02B5AE9'
p275
S'720C1637EC413AA781A963C1E5C4663E'
p276
sS'D8E3BBA70E2A254D466E6DEF9CE629B8'
p277
S'12A275536BDE3AD48412C706C04B297D'
p278
sS'8EAE48195A52341FD7623B47EC29A287'
p279
S'B1D294796884A58F3C4AEE0C155B788E'
p280
sS'D90190E561FD84902CEE55E01787935C'
p281
S'A0AA70E78ED6C4DB9BB2FA8B98BD1F47'
p282
sS'629C55F59186A37A946BAB67217D5DDE'
p283
S'B97837690E771FD605D4A02FF3890DB8'
p284
sS'59CD52CBD88B1ECF86A32474E157AF01'
p285
S'5E160339A63D7627F523B9987F838AC0'
p286
sS'71E36DDC19319E52F168705DF99B9472'
p287
S'57C8145BAB48FDCA9F17068D19FC4EF8'
p288
sS'CC7F8E9C7B20A2D71239CF8CD7AC3B2F'
p289
S'5F75EAFBBD95BE5BF67D785EA5FF35AA'
p290
sS'CDE1DE105B5646E26AE00C7236218D37'
p291
S'720C1637EC413AA781A963C1E5C4663E'
p292
sS'816AF5DB454537F8C566F9AF9BDF23DA'
p293
S'92297A4345A106F5F163AFEFBF6B95AC'
p294
sS'EE615F5B0058FBA93DB69A731E3E7FFD'
p295
S'4161DE85AF634F4089F2436DD2A2D737'
p296
sS'0065AA124C039C31568FCCF1549A2F04'
p297
S'720C1637EC413AA781A963C1E5C4663E'
p298
sS'735E8D89D551B010E71F5852F32039EE'
p299
S'1CCFF478808259095140FBEFAE20C13D'
p300
sS'49E89914CD2FBA1EFDA2A9516ED8BAB4'
p301
S'9BF356B4F53EB5AF08929FE4A2F56443'
p302
sS'88C1ED66D79424192AE3799A54BA83D3'
p303
S'35E41A091779F077C8C2B3EFA5619F2E'
p304
sS'47326DE50A88846E5FE85BE638700CD1'
p305
S'1C7D8519FEAF76AA3319DAB8E39A7512'
p306
sS'2039A46A789D79CA68603757012E2DA6'
p307
S'7D6F86952492F07452E262C6F9FDCA58'
p308
sS'F42C00F5C301EFE0947F75B4D55997F5'
p309
S'BA440B1EEFB0B87A6D16C3AFF4E93C32'
p310
sS'7214CE6012F41E227E29D35A33CF97CE'
p311
S'55AC2A4DA42EFE4BC4A20E672AC3352A'
p312
sS'D31D84732F283B4E1A728A9749FF4ECA'
p313
S'584DFD87E3EAC493F377D4491CFFC3C8'
p314
sS'C796E7FA28EAE04D5CA726470AF5EE0D'
p315
S'A5F543AD68429AB61C75A40F7D635602'
p316
sS'947786485794C75DA085E45FE725F609'
p317
S'09B9B178FDB6423C8F6EAD87F7CE1A92'
p318
sS'CC7CC1C1DD4B796987391B49FBFD692E'
p319
S'FED40D409A950D42FD79A2925048CF32'
p320
sS'A741B58725FDEA0131CC3FE1F8684F65'
p321
S'287D4324E3389C5B97DE9064DC68F7DD'
p322
sS'89189662358B37C89EF731571C5755EF'
p323
S'EA0829169217A07648A86B65100E74FB'
p324
sS'D22F7BE1FAEA85466381CE62E0650A00'
p325
S'FF6E7ACAC29F2DD3D0AD80C9948FF12F'
p326
sS'CD2A5601D79B11CE0B99FD2242F792FB'
p327
S'1E4BBCEE1A524D60359A90152A2C3C19'
p328
sS'044A5EF660F15978F744D4BD297FF775'
p329
S'287D4324E3389C5B97DE9064DC68F7DD'
p330
sS'2A1B1B5E5E78366FF512BF4641F845B0'
p331
S'45168C36486FADAD8F84B202E05A762B'
p332
sS'273576F38D0C1DB9FAA74134C06DBB76'
p333
S'72BED7A29646D6E47221E320DE96D36F'
p334
sS'27CBF2F4887247A47BA0BA0D79744795'
p335
S'7B8C37B6B6378EB95CE23326C1AA2C49'
p336
sS'C837EB8F0C46CC48E150245EB50E2EF8'
p337
S'654159F838143F3705C0874DCB8C291F'
p338
sS'FF5E13D7CBC4C83CFB8C9E5B407CF69A'
p339
S'56279E117B3149B21115101F10330FAD'
p340
sS'522AEA6EE263D5A4FEA7CF78B53CD9BF'
p341
S'EE3500A10CC7E315E3BE51144D67698F'
p342
sS'9497CAE73A9B0CC8B809814155F9FAEF'
p343
S'8C8D75AF6B9DEA2520A8D44D6AA8BCEC'
p344
sS'0BC895EC3DF4DEDAD07A107B626A2B3C'
p345
S'A1238133E1D8E67476E5D264A261CA99'
p346
sS'8FE2D0644E540F4328A64CA065DFEAAE'
p347
S'E606A7B986C9FB7B428A56170FAF9380'
p348
sS'0E52FF91602F8EC8C303D20550350E41'
p349
S'943AAE5D682FDD8EF8C8E55CE056BD7D'
p350
sS'5DF6969FADB156E98681C673F97AA3E6'
p351
S'F50F3AB9D61E76D57573855EF9EBED0A'
p352
sS'F88E2E7E303D7BF485294A4F37243A63'
p353
S'DCE3FED41B63F878DFAC82EC9C399623'
p354
sS'0F71C04D304A030F3729166C0DF9302E'
p355
S'DF39309132FF2EDDE04EC96D6B76DBDD'
p356
sS'64F6E70C3ACACE5433DAC9FC3647DE97'
p357
S'E3DF144309CAB5660CB0DE0ABF69FB2D'
p358
sS'1BA3AB3F1D82E3DC0E3E44690C0EE2F4'
p359
S'71772D0E4A52A803BA204478C78BD04F'
p360
sS'8965311A8AC6BF772F8CBCC03EDCFD01'
p361
S'F326ED49C1B69BA32CEB14FB50F84A98'
p362
sS'8E4C30526A234CBC97079AEBD776390F'
p363
S'2E0BEA8C5B30887CDEE8D506F59B894A'
p364
sS'81097C298A2E5B82C23AB053BCD92A6E'
p365
S'4ECC4B92EBA8757D70F0B1AA3212470D'
p366
sS'71F79EA4DB4CE1D9C8190675D9F8C5D6'
p367
S'287D4324E3389C5B97DE9064DC68F7DD'
p368
sS'C89995EF9F32F623D36776BA8EFCAD50'
p369
S'7E9A44BB3D98D0406D228324C30E7ACF'
p370
sS'FD0C33CD17E09B83C1E9481DC3CE6FC1'
p371
S'42C591DFBD5C25D6AB3C78A504BAF8FD'
p372
sS'1061B81EEBCBBA211485C73ED290F84D'
p373
S'0FB197EF6F793A3DDBE6CD4472E77B63'
p374
sS'9D0DF969FBA28CBEEE068A83D085A970'
p375
S'720C1637EC413AA781A963C1E5C4663E'
p376
sS'97F606CE28F408542732C321B307DE02'
p377
S'C06BDAC8E89DD6EFA6EC5F485026F552'
p378
sS'6E1F5805ADD5C4B8687E95B3AF03CB96'
p379
S'11F5559D8353F98E61991BEB5D694C09'
p380
sS'EF452B27E04847AF641050723B4A4C6D'
p381
S'720C1637EC413AA781A963C1E5C4663E'
p382
sS'A12BFF72B74DD602699FCF2095AB8904'
p383
S'A40F80C44020A69168BBB17425091160'
p384
sS'FEB9FEC475B8B1EB16D37B6E1223A1B7'
p385
S'AC87D3DBC81416CBEED31F9361FC049B'
p386
sS'B68DD4AAAF4CE2B9D91AB0020F48E00C'
p387
S'4ECC4B92EBA8757D70F0B1AA3212470D'
p388
sS'09F24695A520B1D89A06DD0C36F1D480'
p389
S'8E3F184226C614B55794BC5F347F3431'
p390
sS'F68424BD99EBCE2F84CA2A0E7EDF0C0B'
p391
S'A94E674EA9609B88E4E19C92169EC523'
p392
sS'E35D104D973B75E3B2D905C47FB238CF'
p393
S'53D4B67FB6895F373F41A6EAEDD6F05C'
p394
sS'E1C5E9A4FB234F8C8FCE91C66BCC247A'
p395
S'696FE614DD953081D92B9A25A198B7D7'
p396
sS'B157B731F27294E337A5442F14C87978'
p397
S'7A3CB031A36AC609F28732CD09C47EA1'
p398
sS'A19F083AB442985E0753791AF9EE58E3'
p399
S'59E2A230DD641F0AC8494FE8BC9FC9E0'
p400
sS'BC59124B57DC913F1F25E0BF4BAACCBC'
p401
S'FACA97B21D1CC5DA791633B8EB9BD28A'
p402
sS'64B7B20B3588A8A0BE3D98626C21F42D'
p403
S'70FB2D8B52A1F9C86D6E1A41E63E7ABE'
p404
sS'0A42AC0980EF0E34548CE338D456279B'
p405
S'058F6058E6EC98D99F56077439557B8B'
p406
sS'9D8094EA909FC2A31DBDF44701517A0A'
p407
S'DB8EFD2CD19AB20E0E0FCF39620C663F'
p408
sS'71F20DB6E7FCC21AE21AD47AF91CBC51'
p409
S'1EC77BC9879091E8D7F87B9A03B59EF8'
p410
sS'E2C716105BDA11841170C47C30A63D24'
p411
S'1E4BBCEE1A524D60359A90152A2C3C19'
p412
sS'6534710F5AC2F35AFF7CCDECEED7A0A0'
p413
S'66E829FDF2BF7749F2F864194ACE5E08'
p414
sS'489CA229F0CB8C99C348349EF37CF18A'
p415
S'5D8D5DBBF6B7AD553A60F7491E34B34E'
p416
sS'E40F639DA6647B3210FB07F20DA1A4A3'
p417
S'0AC5789E6BD8A99D629B3684DB0AD75A'
p418
sS'E0E42B826860D5446C980B322E24126A'
p419
S'3A6D85AA795CFBC9E60879FED37E3C6C'
p420
sS'ACAF020EE095217D76BB22F94B2DF2DE'
p421
S'A3F880D0F35973BE23453276F7A5A043'
p422
sS'DA4922EB5341456AD560B309119E54A8'
p423
S'720C1637EC413AA781A963C1E5C4663E'
p424
sS'16DBD3A4BEB6EDB2EE0D7A366D1E5EFA'
p425
S'720C1637EC413AA781A963C1E5C4663E'
p426
sS'BA2275639174C4C44863C4B4F8A7B868'
p427
S'04E64383144B960028F8E5E4D2A1494F'
p428
sS'8027D96B74C9807EB9A113DCE1BD18E4'
p429
S'B36C0988FE84A46C0F57953EDE543B84'
p430
sS'29BAB1A14C62107B8BF107FB32BDBED8'
p431
S'B23412287A6AAC0BBDB45874713DFFDF'
p432
sS'5C085413E5B4046B2ECE44F6234DEACC'
p433
S'E841F7DEAEBB659B2C25C34F14A3A243'
p434
sS'CE45F1E455D170063A6227619A4BA06D'
p435
S'62922E929E0F0EB0CD04533B23892AAC'
p436
sS'4BD48DBAB47EB50733B07980DB6CB4EB'
p437
S'D34F36051FAC40F002F9482BADEAA0BF'
p438
sS'BC9F93B3DDAF76AF515C8D2BB6B4044D'
p439
S'720C1637EC413AA781A963C1E5C4663E'
p440
sS'BBCCFDE15C2DC0DAE21980BA3D2A43BE'
p441
S'A404E09A4520F6B9BBFB72D6DC3514E6'
p442
sS'3D5D0BF65FE971717EF0F2F7F3FD486A'
p443
S'AC87D3DBC81416CBEED31F9361FC049B'
p444
sS'B431BAF9FF09F38BA0D226580ADABD82'
p445
S'17B25C8F01C982BD8F871E32B4521868'
p446
sS'DF5C92C315F41AA43977FD78BEA1EB74'
p447
S'D09D805D83EAB9690F262BC196A330AC'
p448
sS'9DA24D121C3508C78B65D79D87B30C7F'
p449
S'A10F03C38EAC7FA4E33C36F62B400171'
p450
sS'B8139D874C34BF45658C790601845266'
p451
S'76F8AD97029A9F2C016A6A9DB1220C33'
p452
sS'098F35C33A1585024F7E1AFBB190D6FC'
p453
S'3CE7A429D55439AB85D1913466AF2795'
p454
sS'6DE47302EDD09058D7151F04869259F5'
p455
S'2AFF656252D873D7B2DB7FDD80CE7B73'
p456
sS'C0DCCFFC1FCA0C90F0F1DF2FF202F159'
p457
S'7C36498F9CDC065D1C8B6ABBA24AEDF0'
p458
sS'FDA9B974B6FCD741693523A4F83B962C'
p459
S'3AED24592DAB3551E98952E12737F0B0'
p460
sS'A7A7B03D53F383F1D28446989A75DFE1'
p461
S'5FD33F9C95396BFC9C98CD4323C1B219'
p462
sS'D1C4671403B3894FD760B905FD0F878A'
p463
S'15BDC182A129B363299574D67088F2AB'
p464
sS'8B0AF64F7C121F22C234BE065AFC7D7A'
p465
S'6622562C40CF8206387FC8DE803B74AF'
p466
sS'D78FF74DF5EA922D4C5F0C974EF56A76'
p467
S'004AAAF9393D0C522863970DFDD61925'
p468
sS'E624ACBD6515557B641ED8E7AD39AE45'
p469
S'04991DFD2D9547A40BE8474F1A1CABCF'
p470
sS'6CC161C769F11C53C3503DD28C578888'
p471
S'13E39F2E712BEDBC497DBD19F410D73D'
p472
sS'727E416ABA7DBF9A1EC21260EE2E288F'
p473
S'F3CE14614481D1E12B02D3B1A9401577'
p474
sS'34DCF78FFECEBDE719BA39683A269182'
p475
S'2EBD6FE32F911ABAFC95CA387DB1C3C1'
p476
sS'30105329E1BE1913F6184CCA2E38AFA8'
p477
S'0E373E516147C56FC77AF0D3ABBE393E'
p478
sS'B60A0F89E55B97580ABB640ACF9E940F'
p479
S'2DF5D90C032B9BADB2ECF90AD970FD9C'
p480
sS'5732636590E240450307BE8F40476091'
p481
S'720C1637EC413AA781A963C1E5C4663E'
p482
sS'9D8BA6BC909E0014D6FEC78EDCA6BAD6'
p483
S'A10F03C38EAC7FA4E33C36F62B400171'
p484
sS'9A2C2E10225527FF085EBD3C247D7DED'
p485
S'8CCEFE0F9D829951935AD669CDEBB159'
p486
sS'02CB3B61A84233E04C4CA47F3808A2E4'
p487
S'D5BA17A679C38D1E2856B59FB6C216DE'
p488
sS'6C51E7C9E793425E4685FDB3B853B6C0'
p489
S'F9C28B561BB13CBD7AEC35531573FC16'
p490
sS'744464A506B797F9519EC39367487284'
p491
S'ED75B5AB3725A06816773EFCF2B779F8'
p492
sS'820A4F2D292A605ACD6FE33626410572'
p493
S'EEE9B4F9FFF5A0588EF987A06A833422'
p494
sS'F845B20402F587F5E2DCCC5E3F83938C'
p495
S'720C1637EC413AA781A963C1E5C4663E'
p496
sS'77839B6DBFE005F08F65424C2C68A44D'
p497
S'D563B59AAF19AB748BE8ECD17C268825'
p498
sS'599591C9B89B230F9B6E8158B35B4360'
p499
S'367012F8159648C6402A4435B4560BCB'
p500
sS'86E6FFC5B8B099EAE1EC0F86FE1F21B2'
p501
S'7CEB64D06BBC4D7C97EF720208976672'
p502
sS'79D5023FCBA697BBED5DFDD3C8C1E165'
p503
S'B87677CF48B2A127876B67CB3BD128B8'
p504
sS'B32C1E05FC58FFF6A9CC9E93B6540920'
p505
S'CBCA8165488F1B4E75CCE236F2639E2F'
p506
sS'E29F876F71ED269EEDF44693421E3E8D'
p507
S'720C1637EC413AA781A963C1E5C4663E'
p508
sS'5AB9F1C9840C5F184A549390E12589B0'
p509
S'7E784063CAAD74159720C19D83A3CCE7'
p510
sS'3A864E321667CF9C353CA9F0661C0651'
p511
S'827C149C550C386177B859384D3F401B'
p512
sS'9A85542EEDDD2A4E5E88BCDAD7935E7A'
p513
S'E746A8C4A3153133EE309DFA22B4C2CD'
p514
sS'64672B8BD388AF145F7C9F3C91323C56'
p515
S'E746A8C4A3153133EE309DFA22B4C2CD'
p516
sS'497A74E2034341A3FDAA8B22D949ECD5'
p517
S'437A0DB7B6BD6FA09A5D1C620D0004C9'
p518
sS'3C7EFF5096A2DD28BFA2C1D29BE2D0B2'
p519
S'09AD154CD439820A51BA23C01617C96D'
p520
sS'190E4BA1F90C8A617A1BA5955E2BF50B'
p521
S'715A337BA51190ECB628E09A22E779D7'
p522
sS'27F9BBF870917705B77A8550F75B8A55'
p523
S'BF4812CBB238437C13FDC0336C559CC4'
p524
sS'FB7B2C610F81CBFC5CD96232D387B42F'
p525
S'485BA2BA1F630BD8DF6FDF585FFCBE44'
p526
sS'EC7C83C3801C7CCB44A5BE95D980725C'
p527
S'29D7761602A63AAD37CDCD4D4E0281B1'
p528
sS'B1B971BA5262673EF0639BB38A64C2FF'
p529
S'A4C3FF44910C2D4FF8D055F12CF7401A'
p530
sS'F64D24CAA0C1DFA2E1AA51D7BAE09256'
p531
S'4E3CFCC22E5E8DA34C2F974DA8BBA378'
p532
sS'75F79017D42F27EDC1348FC10C225791'
p533
S'EEB490133C3B938D9AE30847A878E521'
p534
sS'630BAEEAD3BBED2E33F6EC759A75A542'
p535
S'720C1637EC413AA781A963C1E5C4663E'
p536
sS'9B82E6FF30D4D757502A74465747419B'
p537
S'E7DDACAA334E093CDBCBAB767CAA3B4C'
p538
s.