(dp0
S'A0991E13CC8800DC59D5D43B97CE6181'
p1
S'034548B3971600E49457412FD95699FA'
p2
sS'FD02AEE0B213D4F4BE945075F2A23812'
p3
S'2EBD6FE32F911ABAFC95CA387DB1C3C1'
p4
sS'B95B22A8E2B44EA36103CD7CDC309664'
p5
S'9BF356B4F53EB5AF08929FE4A2F56443'
p6
sS'1E4EC6C9FB6B51C08C1D163C15AF9B0A'
p7
S'57C8145BAB48FDCA9F17068D19FC4EF8'
p8
sS'B34F49B3E42A7921A8B6242C03A8282D'
p9
S'4ECC4B92EBA8757D70F0B1AA3212470D'
p10
sS'26A64B7FC1915CF5D979F864866A004C'
p11
S'720C1637EC413AA781A963C1E5C4663E'
p12
sS'BA5C7F1E5A59B7D74DFDF01A2EAB3192'
p13
S'720C1637EC413AA781A963C1E5C4663E'
p14
sS'D1F63562CDC938ABD51E2A92433F3E6B'
p15
S'B1D294796884A58F3C4AEE0C155B788E'
p16
sS'23F798BC82FAA471D3DC617B00C3077A'
p17
S'C89203EE98C18F88536B220CAF915266'
p18
sS'5613C66924714FBE881A6EAA55CE093E'
p19
S'2A424D24C3D6A36C3E463EAE8606F5D2'
p20
sS'DB922DBC92D340BCA771AE3C25844B27'
p21
S'A94E674EA9609B88E4E19C92169EC523'
p22
sS'23E1CEFFB8E74D98F59039FE8DC61BA5'
p23
S'720C1637EC413AA781A963C1E5C4663E'
p24
sS'B1266AA4F27FE9FE304533FB0ACFCDC4'
p25
S'287D4324E3389C5B97DE9064DC68F7DD'
p26
sS'EFB98E01A576305718C0F1DE4D36B980'
p27
S'C89203EE98C18F88536B220CAF915266'
p28
sS'CBA2524460252F6FAB79103A0FCCDFE5'
p29
S'287D4324E3389C5B97DE9064DC68F7DD'
p30
sS'54FD2C9B51F0F175D32BF312526DE36F'
p31
S'720C1637EC413AA781A963C1E5C4663E'
p32
sS'FEB332263ECAC39351916938C6C31737'
p33
S'720C1637EC413AA781A963C1E5C4663E'
p34
sS'8A53168885BF46DD968F980268367671'
p35
S'055AE11EFDD240C071963BB44D6BE923'
p36
sS'9D1AE2A5375F21ACB4A2877CF280664B'
p37
S'3723F3D81004F384C7A83CA4221D03B5'
p38
sS'033D39E8630DFC49D369BE3354D5FBCA'
p39
S'287D4324E3389C5B97DE9064DC68F7DD'
p40
sS'6BA236A9759C7618642A10A0D9CBE8EB'
p41
S'4CD9834712880F549BFA6EC832E312EE'
p42
sS'E92C8FD36A725BEE45C5DE1567F72683'
p43
S'287D4324E3389C5B97DE9064DC68F7DD'
p44
sS'7D35CD65E842405FD4BE132660D9C96A'
p45
S'2F48A0A94E31128807BC1021A863EDFA'
p46
sS'B841D1D29D0ED9FE0B7610C1A1E38D12'
p47
S'720C1637EC413AA781A963C1E5C4663E'
p48
sS'840BA3868FFD6B68F8B21C027F64E38A'
p49
S'1E4BBCEE1A524D60359A90152A2C3C19'
p50
sS'5FD77A9F5FED07D9B4E680578DBD6979'
p51
S'287D4324E3389C5B97DE9064DC68F7DD'
p52
sS'74065883E61D72CE114D7E6FC8411C7E'
p53
S'720C1637EC413AA781A963C1E5C4663E'
p54
sS'C366D54544E8C16301170E9C00100B2E'
p55
S'287D4324E3389C5B97DE9064DC68F7DD'
p56
sS'5D793E55BC5316B83DE69CBFDFC0903E'
p57
S'CA19A377661E7858D6DD376BEECF09AD'
p58
sS'7562FC22D3B462335A7F1EA197AEDE41'
p59
S'4ECC4B92EBA8757D70F0B1AA3212470D'
p60
sS'D19B25DEF6081CC4D0208F0909F3F570'
p61
S'720C1637EC413AA781A963C1E5C4663E'
p62
sS'B01248C653552382E33EFCDCFAEC1AE3'
p63
S'F3CE14614481D1E12B02D3B1A9401577'
p64
sS'554137C31EE3003D981171DFD178CAAB'
p65
S'720C1637EC413AA781A963C1E5C4663E'
p66
sS'2197579F97E46D6E64F0C25062AAE135'
p67
S'943AAE5D682FDD8EF8C8E55CE056BD7D'
p68
sS'20170FB5EFDBAAF0DD195676800B3051'
p69
S'287D4324E3389C5B97DE9064DC68F7DD'
p70
sS'01D69824CB19AB6090BB668615AC2084'
p71
S'287D4324E3389C5B97DE9064DC68F7DD'
p72
sS'C65C60B98911B4051AD61EDC71189615'
p73
S'5430D51E0F03DC22740108270588A221'
p74
sS'95B9819B8FC292593B79E37E2DB709FD'
p75
S'287D4324E3389C5B97DE9064DC68F7DD'
p76
sS'D9D4EB6274C2A92A772E9B169B607CA7'
p77
S'720C1637EC413AA781A963C1E5C4663E'
p78
sS'DEBF37C4A4797D8CECE044A865DC0D7E'
p79
S'720C1637EC413AA781A963C1E5C4663E'
p80
sS'24768B48198AADB85EC9AED46CB81F4C'
p81
S'55AC2A4DA42EFE4BC4A20E672AC3352A'
p82
sS'D2FFAAEF7AF167A790B3EECA264F2C90'
p83
S'720C1637EC413AA781A963C1E5C4663E'
p84
sS'583723A4DB48679302081680C907FBEF'
p85
S'4A65461E0738A05F6D591FA273B68183'
p86
sS'430D8F169EAE6C3245F13AFDC34461B6'
p87
S'7C36498F9CDC065D1C8B6ABBA24AEDF0'
p88
sS'32676036A925A3BEB3A888B0CC55D722'
p89
S'649B2857AF6562CC249CF61A1068BB48'
p90
sS'50CA4B703A648C1782DBBF029D8606D9'
p91
S'287D4324E3389C5B97DE9064DC68F7DD'
p92
sS'E9EA0ECDBA7D408A27B6CC1382CDD783'
p93
S'2E0BEA8C5B30887CDEE8D506F59B894A'
p94
sS'494F1CDCAA4CE247ECDCA74EE82B158A'
p95
S'57C8145BAB48FDCA9F17068D19FC4EF8'
p96
sS'F084B9FA972B1D9EA0121E896B53B729'
p97
S'287D4324E3389C5B97DE9064DC68F7DD'
p98
sS'D66EA4658AAC38C6FA1ECDB8D1BA73D1'
p99
S'720C1637EC413AA781A963C1E5C4663E'
p100
sS'6B36788E09F162AE8F359047DEEC3427'
p101
S'4ECC4B92EBA8757D70F0B1AA3212470D'
p102
sS'CC657E55CEA6DE7ABD48502A30B340BD'
p103
S'287D4324E3389C5B97DE9064DC68F7DD'
p104
sS'E63603E40D075556AF5B0E5F80B7D450'
p105
S'720C1637EC413AA781A963C1E5C4663E'
p106
sS'FA7428BF58F98BA62A50CDDCCE615624'
p107
S'720C1637EC413AA781A963C1E5C4663E'
p108
sS'8A85D754F54DA5D5482FBC83B3F6A1D1'
p109
S'287D4324E3389C5B97DE9064DC68F7DD'
p110
sS'6CA91A9ADD3DE846F45CE17971226838'
p111
S'287D4324E3389C5B97DE9064DC68F7DD'
p112
sS'0A1E230A8195C11187579D8B7DE1FCA9'
p113
S'720C1637EC413AA781A963C1E5C4663E'
p114
sS'E92FDFC2DCDEE3FF3E5E2A4D51259560'
p115
S'287D4324E3389C5B97DE9064DC68F7DD'
p116
sS'259EC8E45E2E56142DADC62F6597E70A'
p117
S'E475E078491EBEDFAFB867676378EC5D'
p118
sS'B065F38F64400894F72CD9B8362C6830'
p119
S'31D86AA4198D0C7F4F2C0FC25D844DE3'
p120
sS'12E3500B3F81C308794746A3A5E0018C'
p121
S'720C1637EC413AA781A963C1E5C4663E'
p122
sS'BA7A94B94F04C67A96C40805D6A7F335'
p123
S'287D4324E3389C5B97DE9064DC68F7DD'
p124
sS'E4662982810FD46F4F5A19FF9CC4E91F'
p125
S'720C1637EC413AA781A963C1E5C4663E'
p126
sS'F3561AA9E10839B96C8732AE6FD06D8B'
p127
S'720C1637EC413AA781A963C1E5C4663E'
p128
sS'AF532FC2D9F6145538C49B2E105FAAB2'
p129
S'287D4324E3389C5B97DE9064DC68F7DD'
p130
sS'5647C21133E21808B35430C71ECFFBEE'
p131
S'720C1637EC413AA781A963C1E5C4663E'
p132
sS'702FDEB2A7E338CE8DF91B5226951DD2'
p133
S'8D96E7DCD51732DB4141AB8130B19C79'
p134
sS'9B27F0666EB12954FD431D9C2EB4A3D7'
p135
S'287D4324E3389C5B97DE9064DC68F7DD'
p136
sS'1BBCA12F64EFB8058CC0965FB793519B'
p137
S'5D8D5DBBF6B7AD553A60F7491E34B34E'
p138
sS'BC4808A9B6EE342AAFD8BB52A97706B3'
p139
S'AC87D3DBC81416CBEED31F9361FC049B'
p140
sS'AAAD933F4C6D825AE98AA4200A3B2804'
p141
S'720C1637EC413AA781A963C1E5C4663E'
p142
sS'938E7CCCEDA85449F147068F12288E02'
p143
S'287D4324E3389C5B97DE9064DC68F7DD'
p144
sS'4AE37B2ED364C14218806F5977360AA4'
p145
S'3F5847E26F87ED21272485F0403704B5'
p146
sS'4F8D153C228F01A160CF80F1750E85CF'
p147
S'A10F03C38EAC7FA4E33C36F62B400171'
p148
sS'65C87F07B404EC2E10AC79EF58784CBF'
p149
S'287D4324E3389C5B97DE9064DC68F7DD'
p150
sS'2A346301D3595E16BD56D751215FE044'
p151
S'5430D51E0F03DC22740108270588A221'
p152
sS'FA22D0BCE30C4E38B524948DEE242EC9'
p153
S'7C36498F9CDC065D1C8B6ABBA24AEDF0'
p154
sS'AE2CD1B8570CE1F8B9193A1A0A3A6649'
p155
S'720C1637EC413AA781A963C1E5C4663E'
p156
sS'6AB541A4F17BF0DEBE077F0312BFC791'
p157
S'3A6D85AA795CFBC9E60879FED37E3C6C'
p158
sS'68A80048F94FB36E0A0521C8B4FFF573'
p159
S'720C1637EC413AA781A963C1E5C4663E'
p160
sS'A01D3AD77B3636BEAEF4C1800C0C1088'
p161
S'B87677CF48B2A127876B67CB3BD128B8'
p162
sS'FAA0713BF1A94650F5287E2B4B72C1F8'
p163
S'91EF5AD0F59E7FDF5FFA8E72BADA78D9'
p164
sS'06C14073D971A1F97230EDD0DE693F64'
p165
S'CB2175964A64E1AB02431FFE840FAD8D'
p166
sS'1D6893FB6CC0DD43154E9935E348AD1E'
p167
S'5430D51E0F03DC22740108270588A221'
p168
sS'2A47F2D7F189340C1D1D39659EC7F36D'
p169
S'287D4324E3389C5B97DE9064DC68F7DD'
p170
sS'24031C69A4FC5A5DF30E37C21207BFE3'
p171
S'287D4324E3389C5B97DE9064DC68F7DD'
p172
sS'F850CBBF6C178BE2C8A0989B14F2D22A'
p173
S'287D4324E3389C5B97DE9064DC68F7DD'
p174
sS'F0CFE9A3E24FF09F2062A248FEE81F20'
p175
S'3A6D85AA795CFBC9E60879FED37E3C6C'
p176
sS'367DAA924E796FDFA8FD87C2AD1A7C71'
p177
S'720C1637EC413AA781A963C1E5C4663E'
p178
sS'63FAE6696ED816850FCF02867A6FDA38'
p179
S'004AAAF9393D0C522863970DFDD61925'
p180
sS'9FBD5BF4F2669F429C8FD4ACC2E8B577'
p181
S'A10F03C38EAC7FA4E33C36F62B400171'
p182
sS'5A0E64EBEE6CC29E2CA014AAC2264EF0'
p183
S'09AD154CD439820A51BA23C01617C96D'
p184
sS'CFEA47A41C89F7FDA8DE69442470DFB3'
p185
S'287D4324E3389C5B97DE9064DC68F7DD'
p186
sS'6854D1A356C3B473908C846ED35CEA4A'
p187
S'720C1637EC413AA781A963C1E5C4663E'
p188
sS'723981DBDA11F6BC640B8DC4706A5B8D'
p189
S'720C1637EC413AA781A963C1E5C4663E'
p190
sS'B251A57D3393835244C061C2E38F96A4'
p191
S'4DDB8FC9889FE66630B4FC92431D2ACB'
p192
sS'97B7C5C9A9FA3BB19140C14268130B07'
p193
S'1699FB0D29681E75790D29BB175B2150'
p194
sS'553FA26B50F683D3FEE128ADD71CA698'
p195
S'7C36498F9CDC065D1C8B6ABBA24AEDF0'
p196
sS'D1E35D2AD76475DC2D0C1D114B101ED4'
p197
S'287D4324E3389C5B97DE9064DC68F7DD'
p198
sS'659E7563031141C49A6F290D3B1FD57D'
p199
S'E841F7DEAEBB659B2C25C34F14A3A243'
p200
sS'622E781BDAE15340F59BCC9E1AFB322D'
p201
S'287D4324E3389C5B97DE9064DC68F7DD'
p202
sS'CBA1F6883EFD94331565D501E947CBC7'
p203
S'696FE614DD953081D92B9A25A198B7D7'
p204
sS'9C2EC4A16E908368CD04577CB040FEAA'
p205
S'720C1637EC413AA781A963C1E5C4663E'
p206
sS'AABBD9DD7BA0E9A390232C8B9AE90F78'
p207
S'287D4324E3389C5B97DE9064DC68F7DD'
p208
sS'BAAF8EA18AF6B9B916AEED558376E45F'
p209
S'720C1637EC413AA781A963C1E5C4663E'
p210
sS'932C31BB8A07AE41D8B1B1937ED574E4'
p211
S'2D08B84546AC3A5EAF60A473AF9E04ED'
p212
sS'8F8255EB79C411BABCBC657A0B66D45D'
p213
S'720C1637EC413AA781A963C1E5C4663E'
p214
sS'CC637C2A2D3F15B53D7399FFB3D8E292'
p215
S'720C1637EC413AA781A963C1E5C4663E'
p216
sS'6A0B016D95B1705A408AE20494F5783D'
p217
S'287D4324E3389C5B97DE9064DC68F7DD'
p218
sS'7CBF1C66DF39F853ED23BFA37EE4E4CD'
p219
S'F5557C32335ECE64F7E86DB58FDFB525'
p220
sS'E8DEDAE7CB847525E013781EE368020E'
p221
S'1E4BBCEE1A524D60359A90152A2C3C19'
p222
sS'51DC5FBFB5E2C825C0E9B206BE0EBC05'
p223
S'44E207C6DEA90F882C4F4EF28BF04E10'
p224
sS'2BB58B0D9CC4072B811E6C9DCBB89E07'
p225
S'720C1637EC413AA781A963C1E5C4663E'
p226
sS'432370DE3C05AB9D0FA7E6B0A3B9F8BA'
p227
S'DA919DC4F43A10B08967F4394B90DF35'
p228
sS'3EF64A5536ACCFFB801DBB4BBB4B4674'
p229
S'287D4324E3389C5B97DE9064DC68F7DD'
p230
sS'4CE8A3132FB84A3C747C5898532651ED'
p231
S'720C1637EC413AA781A963C1E5C4663E'
p232
sS'A57A74445F2C59D4266B37E453A4B54D'
p233
S'287D4324E3389C5B97DE9064DC68F7DD'
p234
sS'D15745C892B5614F902FEE259D43A135'
p235
S'DAC06ADCCEBA56A71B4773528C2F7ADC'
p236
sS'D35B19E9BA37E0A8C2B0E61623A946BF'
p237
S'2A424D24C3D6A36C3E463EAE8606F5D2'
p238
sS'BB9FEB65BF004EA8738455CE00D4D545'
p239
S'7B8C37B6B6378EB95CE23326C1AA2C49'
p240
sS'D33545DF287B546E4BA51C9531155BCF'
p241
S'7C36498F9CDC065D1C8B6ABBA24AEDF0'
p242
sS'940F50F55E60C29B49356C10879E89F0'
p243
S'44E207C6DEA90F882C4F4EF28BF04E10'
p244
sS'42ED693C4296D504BD664163CCEEAC45'
p245
S'CD681E2F9CBB36D68B646FFA0D6F156B'
p246
sS'0218E13B0E665998C604DE60AD385B3F'
p247
S'76F8AD97029A9F2C016A6A9DB1220C33'
p248
sS'43C5DAAC3C8E34B7506C0708246B757D'
p249
S'720C1637EC413AA781A963C1E5C4663E'
p250
sS'7FC690B9534BEFC50D0AF007605FB07A'
p251
S'C5AFCE5228974533D9CB150D4502351C'
p252
sS'0DB2A733D2020A3A265AFDDF9D03482B'
p253
S'720C1637EC413AA781A963C1E5C4663E'
p254
sS'88D2201A9112756910C76C400144B8E3'
p255
S'70842DF428C84AC5EEE1CE7CF5AA176E'
p256
sS'1E56B4279928C4EDD94CD00430E05BB8'
p257
S'1EC77BC9879091E8D7F87B9A03B59EF8'
p258
sS'8FCF02EE1BD16A828CCCB508AA994389'
p259
S'23E95C98FD4776ACACCDAD77C0005019'
p260
sS'AF56224F7317F31A5238EB6A7A94FC9C'
p261
S'8D79FB18F7265F1B79E640AB9C72CAF2'
p262
sS'99CE59B79B2806B88A9CF755B2C9F270'
p263
S'2785B58949F44DB4922CED5BBEFE8E8F'
p264
sS'582C74FA5A4168A42396C04ADCBB1445'
p265
S'F7DB9E118E9E252B10F6DB7FA0C8C104'
p266
sS'F4C37F1B0D77B00B3CBBEFD57511C670'
p267
S'B1D294796884A58F3C4AEE0C155B788E'
p268
sS'41D2ECB64FE0B731890A3ADF2CAA2E46'
p269
S'287D4324E3389C5B97DE9064DC68F7DD'
p270
sS'225E58367ECDA0068EF4F91D9E85C66E'
p271
S'367012F8159648C6402A4435B4560BCB'
p272
sS'3D7D7995B76064B67B9A5D10DC017AB5'
p273
S'CABDE26299E0AAEEA6D84BDD1DE93C18'
p274
sS'08E149B9E58EBE0917B6CF49E8ABDB07'
p275
S'84EAC991923BCB2FDEBDDD8A1F1556DF'
p276
sS'1BB0DDCCE352B4364BE584A597B336E3'
p277
S'55AC2A4DA42EFE4BC4A20E672AC3352A'
p278
sS'2D24B16E56D520D2B47038DB76ADA624'
p279
S'D71D2DEE514E417D63579C309BC07C52'
p280
sS'FCD32B43D5180DFA1388147AB8017ABB'
p281
S'4452ABAB7493788F1198FC7C2439370A'
p282
sS'5E9062B36387330F4AA789DF4D43ACAC'
p283
S'4ECC4B92EBA8757D70F0B1AA3212470D'
p284
sS'4C3A7E8F7EAA2EA7245FFB9F2038796C'
p285
S'CB2175964A64E1AB02431FFE840FAD8D'
p286
sS'C110E173674E3B1890E82B8A60DFBE89'
p287
S'E746A8C4A3153133EE309DFA22B4C2CD'
p288
sS'7F10A74FFEF55A69D60A0FE9D013CF2E'
p289
S'8D79FB18F7265F1B79E640AB9C72CAF2'
p290
sS'E2FFB38EE95CA2E9DE2403A97E8F94FC'
p291
S'B87677CF48B2A127876B67CB3BD128B8'
p292
sS'E9A5857F22E566608A305C09000DE38F'
p293
S'F3CE14614481D1E12B02D3B1A9401577'
p294
sS'062CD280F6EC848D688C242F1F26862C'
p295
S'09B9B178FDB6423C8F6EAD87F7CE1A92'
p296
sS'CE5DE6F63AA5127ED48996EC498B97F5'
p297
S'720C1637EC413AA781A963C1E5C4663E'
p298
sS'494DE6D9CF210E30C6369DC829CBF9D9'
p299
S'287D4324E3389C5B97DE9064DC68F7DD'
p300
sS'3A81B0A9CE70BD2E7DC167C0CF7E58BB'
p301
S'1E4BBCEE1A524D60359A90152A2C3C19'
p302
sS'ECD70FA2CDF33E9B91C1ADF957BD8447'
p303
S'720C1637EC413AA781A963C1E5C4663E'
p304
sS'27D40CBC59777AFF3062CF0001EBDA44'
p305
S'1699FB0D29681E75790D29BB175B2150'
p306
sS'C8FD7100F3C6B75E398A50C06EF865CB'
p307
S'8D96E7DCD51732DB4141AB8130B19C79'
p308
sS'A20D645797D0DEB1287CAE84D41934B2'
p309
S'287D4324E3389C5B97DE9064DC68F7DD'
p310
sS'987741D8995819396F594E2FF6D48B85'
p311
S'720C1637EC413AA781A963C1E5C4663E'
p312
sS'D46B0A9D507A021A0FA1A44DB369DE76'
p313
S'287D4324E3389C5B97DE9064DC68F7DD'
p314
sS'1409A7E2BFC2093908C62A8480EC31C9'
p315
S'720C1637EC413AA781A963C1E5C4663E'
p316
sS'CE473686DF47664741BC5E9D7289572C'
p317
S'DB8EFD2CD19AB20E0E0FCF39620C663F'
p318
sS'24EC6C475061DEC1D7FE0BE2E207CBA8'
p319
S'A94618A2D164DAAF80161469EFEFE0DA'
p320
sS'5F588086D0D2B941A2F52DAA221FACFB'
p321
S'720C1637EC413AA781A963C1E5C4663E'
p322
sS'3059C3C407A2E4DDA9A54EB08DE34B79'
p323
S'4DDB8FC9889FE66630B4FC92431D2ACB'
p324
sS'3479E7EFFA9B90FD20398A74C7539708'
p325
S'04E64383144B960028F8E5E4D2A1494F'
p326
sS'72663E36028807B52FCA2BDE9321AE3B'
p327
S'EE4FF262BF57C418746D7E2F423B58CC'
p328
sS'D843292BDA2D3F77AD57D68810F77C2B'
p329
S'D71D2DEE514E417D63579C309BC07C52'
p330
sS'FF49AD5A80B0963CA176D54868AE9CDC'
p331
S'367012F8159648C6402A4435B4560BCB'
p332
sS'80B4BC3DE2DDA89C115196A5C13EA8E5'
p333
S'C5AFCE5228974533D9CB150D4502351C'
p334
sS'87FA8DFEEB1D0AA642665992E978BFA5'
p335
S'D1B3D2CDE23B1031BA09052E7096FB22'
p336
sS'0B3AF25E01746B8D542BFBD27B18EA30'
p337
S'A40F80C44020A69168BBB17425091160'
p338
sS'1218447A7B295D6B4FED72626EB7A4C4'
p339
S'720C1637EC413AA781A963C1E5C4663E'
p340
sS'76C2FF04D3AA0B16FF13DBCD6C2B6BD6'
p341
S'720C1637EC413AA781A963C1E5C4663E'
p342
sS'5064DA98C8CCFE727F86B948E1B25292'
p343
S'A28E21F24C9F546A89849CBA604881B5'
p344
s.