(dp0
S'2A1BDBC63D956BA3BB63B227F61162F9'
p1
S'C838B98B55A720A989140DCCBF5F43CF'
p2
sS'E2CB9A776AE8A5173E9FEBEDD76F75B5'
p3
S'720C1637EC413AA781A963C1E5C4663E'
p4
sS'3C2E1AD384AE52844F3F419AD8929B52'
p5
S'C59BB172C594FF701EAE87D64EA3D192'
p6
sS'F47852E6733FA658557FAF21EA1A605C'
p7
S'720C1637EC413AA781A963C1E5C4663E'
p8
sS'77FEA6702772903B5DF04B05FD9798CF'
p9
S'5D8D5DBBF6B7AD553A60F7491E34B34E'
p10
sS'BDF07637EB3218DECF4B2219385C24A2'
p11
S'CABDE26299E0AAEEA6D84BDD1DE93C18'
p12
sS'25975B698EFEF0C30DE5E0A343AA35DB'
p13
S'AE6535D306CC4FCDCD997B70D573D26F'
p14
sS'307C219B3E854F616A27BBCE7EED7D73'
p15
S'720C1637EC413AA781A963C1E5C4663E'
p16
sS'57FAD1AAE07CD303D3095BC7EADAC48E'
p17
S'19D6ABB5B8F57847C32C9196333FAC0E'
p18
sS'5019C5A46F0DD6BB45A9B138F752EA03'
p19
S'C9742508C2339C6747092B033A9FDFFB'
p20
sS'C796E7FA28EAE04D5CA726470AF5EE0D'
p21
S'287D4324E3389C5B97DE9064DC68F7DD'
p22
sS'920A06708D83C2319E9140A027E7F9AB'
p23
S'53AAAD1AB8DA729DEDF672A5C86B2258'
p24
sS'FF26FAB1855E929A0C119193E2ED6986'
p25
S'3CE7A429D55439AB85D1913466AF2795'
p26
sS'F81CEBF8C87EAE1374D3936909335200'
p27
S'2A9AE9AF0B04406C8A0A654F27428A15'
p28
sS'DF5AECBC93CD30F84C41C9064FD70FDC'
p29
S'2606C10CD2CA19D1B3CA4D097DD426AD'
p30
sS'BD59986D66A662AD4804D59D5C8D9D4C'
p31
S'0DE2A8F8A8DA33317E0E106A1B09006D'
p32
sS'63B68E4E47FC36A99C3EB241520E58D3'
p33
S'AA13D91DA0D51B0B7609928F82CE2393'
p34
sS'785BA0B776956E8AB23B6DDE1A3B6069'
p35
S'9235DA2A8636169DD9384A3DC97013A1'
p36
sS'BC445EE5030AD72BC8F1BC1D68C57B82'
p37
S'287D4324E3389C5B97DE9064DC68F7DD'
p38
sS'9CB9067D4471E55236FAB894CAB5D485'
p39
S'E13C908DDE1D8DE74F46DCE222360452'
p40
sS'145F5FB928ACD567735B3624011333FD'
p41
S'865391AF60B44DAFFC8F5D646A7FE743'
p42
sS'89189662358B37C89EF731571C5755EF'
p43
S'EA0829169217A07648A86B65100E74FB'
p44
sS'D93D647ADB0BB709896578BE9A6CD61A'
p45
S'720C1637EC413AA781A963C1E5C4663E'
p46
sS'F3E85ADC7BC76FBDECA70203CEA9C83F'
p47
S'720C1637EC413AA781A963C1E5C4663E'
p48
sS'3CC749AFCBD7F6708C383B5FC4C8AA96'
p49
S'8B91A66EF66DC00DAAC360C1CAF44316'
p50
sS'0277E0DA52C73A90CD6C0EC2DE5C8D12'
p51
S'5D17E785E322B5EF8CA814B434DD46EC'
p52
sS'AF42A478290658ED6A32371A3F4D1644'
p53
S'F7BB9A1B004972B46425DAC3B139B46F'
p54
sS'6E477059938D319A5CD2A9C0D042C749'
p55
S'3F47A3CDA1A437E70DC0993E7506BDBA'
p56
sS'1C01143DFAA11E6DC89EF4D92AE73FC6'
p57
S'A94618A2D164DAAF80161469EFEFE0DA'
p58
sS'8CEA51B517490064FE6F92AA17ADC7BD'
p59
S'287D4324E3389C5B97DE9064DC68F7DD'
p60
sS'6E047B7AC4A9E98C8E87D5323A39B575'
p61
S'9706CB411E7A9957EA2720C4F5D7F911'
p62
sS'C14BBEEC0EEC89573DC2BE326B4BECC6'
p63
S'EEB490133C3B938D9AE30847A878E521'
p64
sS'03E59BCBED456EFDDDD8353E4311D107'
p65
S'7EC9B0A4203C4400E89B95740DA9BF50'
p66
sS'287DD0D50CF89C77F7E104B4A6A8FA71'
p67
S'E65651516837DE815BE96F311ECB12CC'
p68
sS'2EEB8AF85DF9AC5967112E8388BAB5A4'
p69
S'720C1637EC413AA781A963C1E5C4663E'
p70
sS'2B36D171D9452F86525566E23F4A04B2'
p71
S'06D63799C76236FF13165D677C10F871'
p72
sS'7016E377DD56EBB9F0CB75BC4156B239'
p73
S'720C1637EC413AA781A963C1E5C4663E'
p74
sS'60CE8317AFB5BD178C132486FDA75799'
p75
S'F968F07885A56D034392BE17AEAF2CB2'
p76
sS'4D9A5A0E05B20DC10489B05800BA4331'
p77
S'287D4324E3389C5B97DE9064DC68F7DD'
p78
sS'FDA9B974B6FCD741693523A4F83B962C'
p79
S'3AED24592DAB3551E98952E12737F0B0'
p80
sS'8322D79C5EF4BAEE990332640161BAA5'
p81
S'A7CAFF3413FC954EC67DF3C6FC9EE592'
p82
sS'8707AB04F375D6160135D1612A4EA0EA'
p83
S'720C1637EC413AA781A963C1E5C4663E'
p84
sS'BBADD82A820C2E637233ACEDA0D84595'
p85
S'287D4324E3389C5B97DE9064DC68F7DD'
p86
sS'E69614F0F6F217FE9346F26DBEE58E6B'
p87
S'287D4324E3389C5B97DE9064DC68F7DD'
p88
sS'F845B20402F587F5E2DCCC5E3F83938C'
p89
S'720C1637EC413AA781A963C1E5C4663E'
p90
sS'08759D3FE50CF07FF21B11C4E7222291'
p91
S'720C1637EC413AA781A963C1E5C4663E'
p92
sS'2FE46352B1624F003F6B6216FAA6D398'
p93
S'3A3B7CBB781742DE8B0A1B7D27C73DEB'
p94
sS'D02366BFE7D2E8D7CED9FF7505B644D8'
p95
S'8EA999D4FA9729597AA221EE26DF29A9'
p96
sS'D1A95FD2D47107A3D2535F46A82CECBF'
p97
S'26CFEACE140D70D0ACF2DC45AAEA73A1'
p98
sS'AB1E0470BA568FD73DF897E3DEC14F6C'
p99
S'6D571723C2ECD890828E9A3DA2CB4743'
p100
sS'209BB1D81C3B477E1318F737907C96B2'
p101
S'E5213015ACB7EB9BA99B5797C55DEC5F'
p102
sS'9CF00D27311E7D8906894ADB0B46EC7E'
p103
S'44E207C6DEA90F882C4F4EF28BF04E10'
p104
sS'6725F9C4C458E4D74DCA9B9265D33A5B'
p105
S'82B8CD3C6B8FFB3F7EF0B41FB34BED8E'
p106
sS'695814DE279D5FFDAE8E38CD771ED9A7'
p107
S'4C1566AF54FA217ED1A004BBB606BE64'
p108
sS'ABF3BA27EBBE78CBBBBFBFD67B35B281'
p109
S'720C1637EC413AA781A963C1E5C4663E'
p110
sS'0105043434196EF4AFD265E41F649E01'
p111
S'DFC33B4DBE0D1FA50ECA3C436641C00F'
p112
sS'A19DE8FF2E36842E223EFECF2F7DDB30'
p113
S'F8DA2692F3F3EC0F3AF4F15D8BFBA15F'
p114
sS'AB431C130268C04FFF93BE3CD7D410BC'
p115
S'A2701FEBF98FBAC2D41763681AAA1E21'
p116
sS'99B84AB374FE40102FAB1DAF1C9EAD81'
p117
S'9ED49495FC42499993FF1E81BABFB961'
p118
sS'0573DD70937E2D0E1E474463B1E41469'
p119
S'720C1637EC413AA781A963C1E5C4663E'
p120
sS'03777F551602F9627913B00612F91667'
p121
S'AF06DE3E4613E822190A4D70045EEC25'
p122
sS'4F98B889ABC2CB5BD65487AE1FB145C3'
p123
S'720C1637EC413AA781A963C1E5C4663E'
p124
sS'5E0276602483D55CA5C877F27509B0CB'
p125
S'604CCEB8F37816D4C8459AB29CBB6214'
p126
sS'743B457FD5941EFBAF577B5A8346E5AB'
p127
S'21BF2850A118BBCAB2E6B3995BE1C02F'
p128
sS'31A3C2145687EF5B86B0DE2D65BAB4BB'
p129
S'2B63CC2B813CFDD053F47507A5F51FBF'
p130
sS'1642D5C0435E7B6E82C322533AE4822E'
p131
S'358317DD74FC3A5BA6E09B9683E75733'
p132
sS'824A37F1DF559ED436C5D733D42CCAAF'
p133
S'D11D2BF3659A6F0492D9A93A665CE7E7'
p134
sS'32D84B8547A931738EECBD01CF03DCAC'
p135
S'4FABA093309EDD17A19FF9EB048F170F'
p136
sS'2414E3EEF39D548BADE32C9730C838F3'
p137
S'287D4324E3389C5B97DE9064DC68F7DD'
p138
sS'E819CFE0A1F9DAF50D42CBEB2F80E63E'
p139
S'26DCB5937890E3914F9BDA2000A98CA5'
p140
sS'72E7B1A1106A6CBAE5F5A85A2D9B008C'
p141
S'2958653245A452DEEB73AF49C264250F'
p142
sS'1AB33B28DFAE6F3FC975263D7E09E5EF'
p143
S'00A64A0B7D2FAC8370D5C07702B8AE9C'
p144
sS'AAA777DF92FFD877669719F6D1B85AD3'
p145
S'BD5EC75562CFB78FA21A110841B8D4BE'
p146
sS'4310F12637ADFE9F75C78F0B272C75B2'
p147
S'FCBCB1D8DE245A11A72F1B76719CB46B'
p148
sS'CD5547CB627BB5FCA091F44B291BFA2C'
p149
S'3414DA49044C82AA0765B741C4AA460E'
p150
sS'08424E8279FD081945F0A18189AB16EC'
p151
S'367012F8159648C6402A4435B4560BCB'
p152
sS'3860A011F2538FBD800B2B35CE252376'
p153
S'F329AB7BC0CDF01D17AAF5B9812DFACD'
p154
sS'890D58CC77B81C43848C9AAE530DEDF4'
p155
S'C28F29B6F5167BCD6F3D1AF8B828A96C'
p156
sS'A768B3A8D9827FB6D195533FAD163763'
p157
S'5430D51E0F03DC22740108270588A221'
p158
sS'CC3C972E526F1D4579617A1A57444BE4'
p159
S'36CEF4615154B689B7841DB9FC3DAAD7'
p160
sS'9E2C38CFCF1B5AA6817D7B9F148CC80B'
p161
S'A920F7D9E53AE72EE49FB92D68E9AC13'
p162
sS'F2E45B96FD37AD45F4D8D082F422EC4D'
p163
S'720C1637EC413AA781A963C1E5C4663E'
p164
sS'DA5A86D16F6DB562FF488FA4A966A081'
p165
S'F555167B277AEE2155094FB72AD58785'
p166
sS'B8F0BFC46B7265CE7142686BB78B8934'
p167
S'287D4324E3389C5B97DE9064DC68F7DD'
p168
sS'CF13157B723EDB1F941AFB78DC092A39'
p169
S'8C1DBEC1D69F11D9C7D5BAFD04BAFD7E'
p170
sS'E624ACBD6515557B641ED8E7AD39AE45'
p171
S'04991DFD2D9547A40BE8474F1A1CABCF'
p172
sS'F580A7659DA1BFCF2151FF45563434EB'
p173
S'720C1637EC413AA781A963C1E5C4663E'
p174
sS'EF73E5CCFA49B4321562BEAFD6CD9AA0'
p175
S'287D4324E3389C5B97DE9064DC68F7DD'
p176
sS'6EB975D26BB9386A51D1851CA0F2A6FD'
p177
S'3C57BF5CBD6F7C8BC58FA6417D216639'
p178
sS'613C0F3CB7BF6B54B3E4EA0F9A9448F5'
p179
S'5D17E785E322B5EF8CA814B434DD46EC'
p180
sS'E7DCE5D2EC1BB0A4121345D37DE0AA71'
p181
S'C071EB676FB8F14A6A2C6722C7167FEC'
p182
sS'215003CD277B283677C32479DD7D8425'
p183
S'287D4324E3389C5B97DE9064DC68F7DD'
p184
sS'4F27D20BC924B85F31CE566E6FA9F713'
p185
S'96B695DFE56B33C5A8DAC802E2337A0D'
p186
sS'2F6C2ACF8C281160EED32BADBABE46A8'
p187
S'8E297D5B61BA9E8EFB433EAA5179F3C0'
p188
sS'8982D04E8D65682D7C3F64759D453337'
p189
S'720C1637EC413AA781A963C1E5C4663E'
p190
sS'2577282C2D0DA97B9AF212168C6BE97F'
p191
S'287D4324E3389C5B97DE9064DC68F7DD'
p192
sS'C5884DC4C6672124E134F03E8A7A68F1'
p193
S'287D4324E3389C5B97DE9064DC68F7DD'
p194
sS'D65BC7C6CAC3EDB47C217D49CACABE3F'
p195
S'EF89130AFFD0A64E638A3CC411A00038'
p196
sS'D15D0D90E97004CCA53806DFF02B5AE9'
p197
S'720C1637EC413AA781A963C1E5C4663E'
p198
sS'D329D2AC05DDFD05D5D81494DF0767FF'
p199
S'287D4324E3389C5B97DE9064DC68F7DD'
p200
sS'5AE693B4EEADDBF1227A86024BD97BBE'
p201
S'720C1637EC413AA781A963C1E5C4663E'
p202
sS'8B1AF7EBE519DB8C9D4C78DC6E8E3F4A'
p203
S'287D4324E3389C5B97DE9064DC68F7DD'
p204
sS'441B1BF3891223DD8448347B1657BFB5'
p205
S'A94618A2D164DAAF80161469EFEFE0DA'
p206
sS'1B5A7F48BA400E9B62275C23D7E83541'
p207
S'0530C8BDF9D06CF40C3EDE62000E2B5C'
p208
sS'E96AA464C122F06D9779E41FEFEE7C66'
p209
S'287D4324E3389C5B97DE9064DC68F7DD'
p210
sS'180E7EFDA3B29D153CA0FFF6309DBD6A'
p211
S'287D4324E3389C5B97DE9064DC68F7DD'
p212
sS'C0E4AC9B40D9AEB7913B11F99C9CD55F'
p213
S'720C1637EC413AA781A963C1E5C4663E'
p214
sS'735E8D89D551B010E71F5852F32039EE'
p215
S'1CCFF478808259095140FBEFAE20C13D'
p216
sS'1ABADE220F76FB56E1382D21C646B6B9'
p217
S'87B4F3BEA0DB8B5DEDC3375DBE592D32'
p218
sS'E5CD98079027BA4FFE5325E62FFFBCB2'
p219
S'19E0BF3DD47E92D57BCD6F68D530CDBA'
p220
sS'F3A814380A996456F80A881A2C5E1B34'
p221
S'720C1637EC413AA781A963C1E5C4663E'
p222
sS'5B817850B6FEF56701E4F96FEA0FE954'
p223
S'720C1637EC413AA781A963C1E5C4663E'
p224
sS'4FEF970D73686CA1EE30E77CB1F50E45'
p225
S'3112E39999FD97E4ED5BE917DB7CD428'
p226
sS'F7BD93CF45B51E7FE22D632066685425'
p227
S'287D4324E3389C5B97DE9064DC68F7DD'
p228
sS'2E12A89A73B47010904A93A06E3DDAF4'
p229
S'287D4324E3389C5B97DE9064DC68F7DD'
p230
sS'E40F639DA6647B3210FB07F20DA1A4A3'
p231
S'0AC5789E6BD8A99D629B3684DB0AD75A'
p232
sS'5C40FBCF08B7B508FCAB4ED27B9F2299'
p233
S'720C1637EC413AA781A963C1E5C4663E'
p234
sS'098F35C33A1585024F7E1AFBB190D6FC'
p235
S'3CE7A429D55439AB85D1913466AF2795'
p236
sS'652849A11766BD66E65148BC0E4DEB53'
p237
S'720C1637EC413AA781A963C1E5C4663E'
p238
sS'B33EFCC951B10DD789BD9D53F18FD42E'
p239
S'EBE8A8343C0A127F8A9D0B5778BC7A83'
p240
sS'29505B2C2C7FB720266642F67350EBF2'
p241
S'720C1637EC413AA781A963C1E5C4663E'
p242
sS'5732636590E240450307BE8F40476091'
p243
S'720C1637EC413AA781A963C1E5C4663E'
p244
sS'4E4C42531B5DFADD6F14B482C13947EF'
p245
S'DF4CC8A3EDC72676743EF6E28687B629'
p246
sS'FA69E4B6FDD7D03329CAA9411AD7FB9D'
p247
S'AC656DB9EF564551D3AB96C04C204063'
p248
sS'F71C063E45E3B2BB191AE2D9D9022D46'
p249
S'6BCBD30A2792687CE4DA222EB1CB34DE'
p250
sS'383511F106242DC277C8FBD79805D68A'
p251
S'DA63A01DABE7A1FDDF4EBD2081ED957D'
p252
sS'809F81FC327633622414078C62A7A7C7'
p253
S'720C1637EC413AA781A963C1E5C4663E'
p254
sS'EE03303713642C0DFDAB5DB5A87D090F'
p255
S'720C1637EC413AA781A963C1E5C4663E'
p256
sS'A21FE1BDAAB3778B0C732A77C6C09F53'
p257
S'39B679CB52CC944840E62C7F1AD0BBDA'
p258
sS'CDDC0A3FBDC3AB1A2AB6E84F9530F29A'
p259
S'A94618A2D164DAAF80161469EFEFE0DA'
p260
sS'FC2B607DA738C43E78B55844716160B6'
p261
S'31D86AA4198D0C7F4F2C0FC25D844DE3'
p262
sS'DFCCF2721DDB6603E7803C0F042AD3DF'
p263
S'FCBCB1D8DE245A11A72F1B76719CB46B'
p264
sS'77CB0215E749FCEB23983EDFDB9090AE'
p265
S'720C1637EC413AA781A963C1E5C4663E'
p266
sS'D0DB21EA3B9CF282494B67D69E5FCBC1'
p267
S'5615E479B9770BC250EEBB1DC5A27AD9'
p268
sS'283F7219DD5267DAE6A013BBCE5B87BB'
p269
S'CA0A10345B303CCF03DE551BB678A1A8'
p270
sS'977FA2A2E2E8BF3BF6F8316DF8A78305'
p271
S'1762A2A2E7D25C5813B280B138165235'
p272
sS'CDE1DE105B5646E26AE00C7236218D37'
p273
S'6939A42F13ACC8E961C3C5A4F515B6D3'
p274
sS'EE615F5B0058FBA93DB69A731E3E7FFD'
p275
S'4161DE85AF634F4089F2436DD2A2D737'
p276
sS'0065AA124C039C31568FCCF1549A2F04'
p277
S'CB821080592987280C94D2454BA09DA3'
p278
sS'E0006FB0524FB148EF987FB88C636CFF'
p279
S'287D4324E3389C5B97DE9064DC68F7DD'
p280
sS'49E89914CD2FBA1EFDA2A9516ED8BAB4'
p281
S'9BF356B4F53EB5AF08929FE4A2F56443'
p282
sS'A953B3D577898F2B7D34D9625BAD4CD3'
p283
S'F1F51663FDEE524B003ED92CE608C8D1'
p284
sS'EFACD762FAB8DAA6185E7DA9C338B6FB'
p285
S'720C1637EC413AA781A963C1E5C4663E'
p286
sS'A13E12F6F1C6405B7AF0858CB83F1E3C'
p287
S'720C1637EC413AA781A963C1E5C4663E'
p288
sS'F7404A83EC201CD3FA0651BD77508F47'
p289
S'2BCEBD1E7D3367927EBD42067E54CAD7'
p290
sS'F42C00F5C301EFE0947F75B4D55997F5'
p291
S'BA440B1EEFB0B87A6D16C3AFF4E93C32'
p292
sS'D31D84732F283B4E1A728A9749FF4ECA'
p293
S'584DFD87E3EAC493F377D4491CFFC3C8'
p294
sS'21D10B0FD5466052BC93B107A544840D'
p295
S'79189001E84A58818C3080023F26AF2D'
p296
sS'0857DDB6F0EB9B005BAC2F4E19897FF0'
p297
S'0E373E516147C56FC77AF0D3ABBE393E'
p298
sS'9AE4E4219B0E104340FAD4274B2B54C7'
p299
S'2CA9E96629148EBB695787E71E350E53'
p300
sS'A741B58725FDEA0131CC3FE1F8684F65'
p301
S'287D4324E3389C5B97DE9064DC68F7DD'
p302
sS'92C41F69D345CEA5D7C8F6305A83F6D3'
p303
S'352D373C4C38EAEF5C2B9C79B9C33459'
p304
sS'E94070D72ADC39C176CDE6B048D4369A'
p305
S'D7EF6F1BD60464D6060E34A20E1ECC9C'
p306
sS'BCAD87B5BB28F558B64F362703FFBE4F'
p307
S'287D4324E3389C5B97DE9064DC68F7DD'
p308
sS'044A5EF660F15978F744D4BD297FF775'
p309
S'287D4324E3389C5B97DE9064DC68F7DD'
p310
sS'2A1B1B5E5E78366FF512BF4641F845B0'
p311
S'45168C36486FADAD8F84B202E05A762B'
p312
sS'27CBF2F4887247A47BA0BA0D79744795'
p313
S'7B8C37B6B6378EB95CE23326C1AA2C49'
p314
sS'95E79E1D9C6282B8F88FF5616F0D934F'
p315
S'75C6C33B177E47F7816E8EB8CBCF6270'
p316
sS'96F270E58A6E9879B1CD77D43F3E7297'
p317
S'6D4EE3DDBE98EA29ED8EF0A657EB6BD7'
p318
sS'86E6FFC5B8B099EAE1EC0F86FE1F21B2'
p319
S'7CEB64D06BBC4D7C97EF720208976672'
p320
sS'BCCA577322FDF1309F2EC7C60B207444'
p321
S'287D4324E3389C5B97DE9064DC68F7DD'
p322
sS'629C55F59186A37A946BAB67217D5DDE'
p323
S'B97837690E771FD605D4A02FF3890DB8'
p324
sS'8FE2D0644E540F4328A64CA065DFEAAE'
p325
S'E606A7B986C9FB7B428A56170FAF9380'
p326
sS'77AFD5BE9B44B7AC0ABC72DE8FF0E58E'
p327
S'24B335FDEE7F89297E273A0C17D9BB10'
p328
sS'B157B731F27294E337A5442F14C87978'
p329
S'7A3CB031A36AC609F28732CD09C47EA1'
p330
sS'5DF6969FADB156E98681C673F97AA3E6'
p331
S'F50F3AB9D61E76D57573855EF9EBED0A'
p332
sS'F88E2E7E303D7BF485294A4F37243A63'
p333
S'DCE3FED41B63F878DFAC82EC9C399623'
p334
sS'0F71C04D304A030F3729166C0DF9302E'
p335
S'DF39309132FF2EDDE04EC96D6B76DBDD'
p336
sS'47326DE50A88846E5FE85BE638700CD1'
p337
S'1C7D8519FEAF76AA3319DAB8E39A7512'
p338
sS'121E2FAD5D9F65062EFEB198F77F7E34'
p339
S'720C1637EC413AA781A963C1E5C4663E'
p340
sS'64F6E70C3ACACE5433DAC9FC3647DE97'
p341
S'E3DF144309CAB5660CB0DE0ABF69FB2D'
p342
sS'16A6B222555C83E6F3BD67B5197760D2'
p343
S'A28E21F24C9F546A89849CBA604881B5'
p344
sS'B1B971BA5262673EF0639BB38A64C2FF'
p345
S'A4C3FF44910C2D4FF8D055F12CF7401A'
p346
sS'5CE9DA4178AA9A15900681105B2B1FC9'
p347
S'548B8D7A4382CDF58ED005BE75B31157'
p348
sS'71F79EA4DB4CE1D9C8190675D9F8C5D6'
p349
S'287D4324E3389C5B97DE9064DC68F7DD'
p350
sS'C89995EF9F32F623D36776BA8EFCAD50'
p351
S'7E9A44BB3D98D0406D228324C30E7ACF'
p352
sS'FD0C33CD17E09B83C1E9481DC3CE6FC1'
p353
S'42C591DFBD5C25D6AB3C78A504BAF8FD'
p354
sS'1061B81EEBCBBA211485C73ED290F84D'
p355
S'0FB197EF6F793A3DDBE6CD4472E77B63'
p356
sS'9D0DF969FBA28CBEEE068A83D085A970'
p357
S'720C1637EC413AA781A963C1E5C4663E'
p358
sS'97F606CE28F408542732C321B307DE02'
p359
S'C06BDAC8E89DD6EFA6EC5F485026F552'
p360
sS'832552DCEABA9DDEAF014907FE6165AC'
p361
S'86C49EE55FAD49DDB0F5954379A74034'
p362
sS'6D66E79781C69C5F3E83F88BA04419E6'
p363
S'720C1637EC413AA781A963C1E5C4663E'
p364
sS'EF452B27E04847AF641050723B4A4C6D'
p365
S'720C1637EC413AA781A963C1E5C4663E'
p366
sS'DA4922EB5341456AD560B309119E54A8'
p367
S'720C1637EC413AA781A963C1E5C4663E'
p368
sS'FF5E13D7CBC4C83CFB8C9E5B407CF69A'
p369
S'56279E117B3149B21115101F10330FAD'
p370
sS'09F24695A520B1D89A06DD0C36F1D480'
p371
S'8E3F184226C614B55794BC5F347F3431'
p372
sS'F68424BD99EBCE2F84CA2A0E7EDF0C0B'
p373
S'A94E674EA9609B88E4E19C92169EC523'
p374
sS'972AB0B37471E87A6F2958B7A2CC0408'
p375
S'649B2857AF6562CC249CF61A1068BB48'
p376
sS'A19F083AB442985E0753791AF9EE58E3'
p377
S'59E2A230DD641F0AC8494FE8BC9FC9E0'
p378
sS'BC59124B57DC913F1F25E0BF4BAACCBC'
p379
S'8E34746AA8CD147B875EECF44B403344'
p380
sS'D22F7BE1FAEA85466381CE62E0650A00'
p381
S'FF6E7ACAC29F2DD3D0AD80C9948FF12F'
p382
sS'9DF710DF88A87CB765C7C32BFBDE988C'
p383
S'720C1637EC413AA781A963C1E5C4663E'
p384
sS'FB7B2C610F81CBFC5CD96232D387B42F'
p385
S'485BA2BA1F630BD8DF6FDF585FFCBE44'
p386
sS'489CA229F0CB8C99C348349EF37CF18A'
p387
S'5D8D5DBBF6B7AD553A60F7491E34B34E'
p388
sS'04D92AF6D5C7B5046BAD834F8753A886'
p389
S'720C1637EC413AA781A963C1E5C4663E'
p390
sS'E8D733B3BD49FDA3D3024FEE5074BA73'
p391
S'2AECD3F2E6F3DF72E78217BB31EE33DD'
p392
sS'C0714E883FECA67F63A9053DF84B8007'
p393
S'287D4324E3389C5B97DE9064DC68F7DD'
p394
sS'930FB2249BDCD37974F16D2F7033CECE'
p395
S'FDDA9CDA844CA702717272ABED645FB2'
p396
sS'D55E55A81F9156F9F1A303B3B4C07243'
p397
S'2F48A0A94E31128807BC1021A863EDFA'
p398
sS'E4ED687F9175D2E30168A9E3FBC7EF8C'
p399
S'7DA76B285D4FC8A087480F178D4EF5B7'
p400
sS'F69DCDC07C559D4972635A80D90608CE'
p401
S'720C1637EC413AA781A963C1E5C4663E'
p402
sS'8027D96B74C9807EB9A113DCE1BD18E4'
p403
S'B36C0988FE84A46C0F57953EDE543B84'
p404
sS'73D0C69D0D906900F762E0024A26469C'
p405
S'F1F4F379CDA25ACE73490C05270CD7D7'
p406
sS'9A2C2E10225527FF085EBD3C247D7DED'
p407
S'720C1637EC413AA781A963C1E5C4663E'
p408
sS'3D5D0BF65FE971717EF0F2F7F3FD486A'
p409
S'AC87D3DBC81416CBEED31F9361FC049B'
p410
sS'D685BF1BAFAA83047FFF4A6C75CD0506'
p411
S'720C1637EC413AA781A963C1E5C4663E'
p412
sS'DF5C92C315F41AA43977FD78BEA1EB74'
p413
S'D09D805D83EAB9690F262BC196A330AC'
p414
sS'3D177095BB33BAE17A56D2E6DCE5A760'
p415
S'720C1637EC413AA781A963C1E5C4663E'
p416
sS'2B01A1BAC1222960C19A1E865C31E207'
p417
S'85D37096EF9E179210CF03D28AB6C4F3'
p418
sS'11F88AF1DA568873C4121FA9C25F05A6'
p419
S'F439928A1B1A4872842A5A2E299BBC33'
p420
sS'A65F57331086032777064F0671D9232C'
p421
S'720C1637EC413AA781A963C1E5C4663E'
p422
sS'6DE47302EDD09058D7151F04869259F5'
p423
S'2AFF656252D873D7B2DB7FDD80CE7B73'
p424
sS'B393E7594CC10A26CC356D4B4AB14AD4'
p425
S'0B08AC842CEBDFF27A7F350AD37348F7'
p426
sS'B6B9193BC9DF3243B198895B781BB218'
p427
S'6F5DEFE0FB868A9F363DB73D6361967E'
p428
sS'70F6424EDF62EE96008794D4558A8310'
p429
S'287D4324E3389C5B97DE9064DC68F7DD'
p430
sS'0044052C15984A470F478B24A8EF4B32'
p431
S'287D4324E3389C5B97DE9064DC68F7DD'
p432
sS'F5BD3EB2CCFA0D6F432C3145AB1235CD'
p433
S'165C6BDD6B804D4E9EF14099F0A43F0B'
p434
sS'7ECE143F354BBAE17EBD848C522F9F4F'
p435
S'287D4324E3389C5B97DE9064DC68F7DD'
p436
sS'6CC161C769F11C53C3503DD28C578888'
p437
S'13E39F2E712BEDBC497DBD19F410D73D'
p438
sS'727E416ABA7DBF9A1EC21260EE2E288F'
p439
S'F3CE14614481D1E12B02D3B1A9401577'
p440
sS'E1AB52FFC0845C0707D0CBC0BCB48486'
p441
S'E50766473F67A08C923222E04E55CB2E'
p442
sS'B60A0F89E55B97580ABB640ACF9E940F'
p443
S'2DF5D90C032B9BADB2ECF90AD970FD9C'
p444
sS'6C51E7C9E793425E4685FDB3B853B6C0'
p445
S'287D4324E3389C5B97DE9064DC68F7DD'
p446
sS'744464A506B797F9519EC39367487284'
p447
S'ED75B5AB3725A06816773EFCF2B779F8'
p448
sS'820A4F2D292A605ACD6FE33626410572'
p449
S'EEE9B4F9FFF5A0588EF987A06A833422'
p450
sS'B48AFF751A20DDF1FA6F9BF0AA8ED358'
p451
S'720C1637EC413AA781A963C1E5C4663E'
p452
sS'77839B6DBFE005F08F65424C2C68A44D'
p453
S'D563B59AAF19AB748BE8ECD17C268825'
p454
sS'599591C9B89B230F9B6E8158B35B4360'
p455
S'367012F8159648C6402A4435B4560BCB'
p456
sS'97FE14BF8FA337BB7F41600534573AD0'
p457
S'B6F13CC25FF9B47DAEA8A4FD872B3C65'
p458
sS'6E1F5805ADD5C4B8687E95B3AF03CB96'
p459
S'11F5559D8353F98E61991BEB5D694C09'
p460
sS'E29F876F71ED269EEDF44693421E3E8D'
p461
S'720C1637EC413AA781A963C1E5C4663E'
p462
sS'5AB9F1C9840C5F184A549390E12589B0'
p463
S'7E784063CAAD74159720C19D83A3CCE7'
p464
sS'3A864E321667CF9C353CA9F0661C0651'
p465
S'827C149C550C386177B859384D3F401B'
p466
sS'9A85542EEDDD2A4E5E88BCDAD7935E7A'
p467
S'E746A8C4A3153133EE309DFA22B4C2CD'
p468
sS'64672B8BD388AF145F7C9F3C91323C56'
p469
S'E746A8C4A3153133EE309DFA22B4C2CD'
p470
sS'497A74E2034341A3FDAA8B22D949ECD5'
p471
S'437A0DB7B6BD6FA09A5D1C620D0004C9'
p472
sS'DDAED5DD0D0FDC51B0DF732F84114819'
p473
S'EBE85396E18EE0086B17D3FBCEB3B02D'
p474
sS'27F9BBF870917705B77A8550F75B8A55'
p475
S'BF4812CBB238437C13FDC0336C559CC4'
p476
sS'900C359CA90CFA355860E5EA2AC1AE7B'
p477
S'3A7EDC809AA7B465DB35F06F697400D3'
p478
sS'DF2EB332029A60A1668FA244336EA905'
p479
S'720C1637EC413AA781A963C1E5C4663E'
p480
sS'3583277AD0B9FD9FAEA33D77E49D9911'
p481
S'306498A9958D67D1A6E3000ABEB4EB14'
p482
sS'F64D24CAA0C1DFA2E1AA51D7BAE09256'
p483
S'4E3CFCC22E5E8DA34C2F974DA8BBA378'
p484
sS'31EA78D98AFB4BEE0E040A70BEA86185'
p485
S'36D57F8E278235D18BBB13ECE7A33FB1'
p486
sS'630BAEEAD3BBED2E33F6EC759A75A542'
p487
S'720C1637EC413AA781A963C1E5C4663E'
p488
sS'854A172BC1714CC067CCE94F2CE6154D'
p489
S'7F9CC41A025D693EBC10534B9B20177E'
p490
s.