(dp0
S'03F21BBCE3EA8AC5D94ABC6ED6C6331B'
p1
S'BD102324D63F2A9B16486D3818E975B1'
p2
sS'AD4FF7AAF69F17C5C539ABC60B649022'
p3
S'287D4324E3389C5B97DE9064DC68F7DD'
p4
sS'9AEEB59D54AF40C187E42C4748B4D526'
p5
S'287D4324E3389C5B97DE9064DC68F7DD'
p6
sS'CC21E78671CBBE104B4EAD8415FB5895'
p7
S'720C1637EC413AA781A963C1E5C4663E'
p8
sS'704FA5A89D5B9B0A71F3DB73B0B50956'
p9
S'45FD7DB3649B55CFDECAAB4BFF068E17'
p10
sS'B5C50D262AC5BDCF2C5F35DCDDA1C779'
p11
S'A39698BA90D976EC5292B58DBF06A890'
p12
sS'B268CBC7AD1DB975C382289694D78B96'
p13
S'20C485D7DBDC1710F31DB72F8864FB64'
p14
sS'D2021871942C60F334CF69998767875B'
p15
S'6B649C17EB768736A178253ACAE37B3B'
p16
sS'F9DC6C5779289ABBBF415B149B11703C'
p17
S'720C1637EC413AA781A963C1E5C4663E'
p18
sS'18916C7481590BD51127EC583D1343DC'
p19
S'E5CEDEDBCB29F00350835F46BEADAA9E'
p20
sS'D20F01D90B7DD6F1F96E5440D189F07F'
p21
S'287D4324E3389C5B97DE9064DC68F7DD'
p22
sS'91B7DF39D3C1872B9425A20E508D31F1'
p23
S'720C1637EC413AA781A963C1E5C4663E'
p24
sS'CB038C5E662A2800E122ED02DFA39CE5'
p25
S'B70DFDB3C1D80A7E032B7DDFDC27672D'
p26
sS'8DFE8142EF92AFDE3747D54E6CBA4CD1'
p27
S'DD9474FFF80A2E1DAFA78997BDC736C4'
p28
sS'445C6483DD9F5BD882C64E311EC07AF0'
p29
S'F880891B2AFC717CEF8CFF93F8BB206E'
p30
sS'60E807FE1E0FE9A042B05466621AE1EA'
p31
S'720C1637EC413AA781A963C1E5C4663E'
p32
sS'55AB87A0C878C4E76FD4D29FC81C831B'
p33
S'720C1637EC413AA781A963C1E5C4663E'
p34
sS'2A3B402809411F4957248A39BBF97364'
p35
S'299B26EBB3B3712F2978EAD585BC6098'
p36
sS'A64979796115BB2F061CD0F2ECECF0AD'
p37
S'720C1637EC413AA781A963C1E5C4663E'
p38
sS'7ED6B7BA38534074A924B399ACE93DCF'
p39
S'720C1637EC413AA781A963C1E5C4663E'
p40
sS'AFB21E806EF7B1405062ACA66C076710'
p41
S'720C1637EC413AA781A963C1E5C4663E'
p42
sS'81F75EAEF72B5704BF0888A76D94675A'
p43
S'720C1637EC413AA781A963C1E5C4663E'
p44
sS'87047B238A476D6AB9735FF6409FCAEF'
p45
S'720C1637EC413AA781A963C1E5C4663E'
p46
sS'12A5D019329DA0754D37104B3177D6BB'
p47
S'FC07ADE225CAEE270CB6BC9AD096D0E8'
p48
sS'F3EB28DC2763675585BAF4B484506750'
p49
S'350D9104B6AED3EB2B37D9169EE09458'
p50
sS'55D0C34B012D441BDAA7BD7C8778F02C'
p51
S'720C1637EC413AA781A963C1E5C4663E'
p52
sS'C2B5888E4555CC29D2B4ED1F03D3CB9E'
p53
S'720C1637EC413AA781A963C1E5C4663E'
p54
sS'8CA9C7438169F39EE3CFACD72C2FA2B8'
p55
S'287D4324E3389C5B97DE9064DC68F7DD'
p56
sS'46309A94A85595ECBC23329D48208DFC'
p57
S'287D4324E3389C5B97DE9064DC68F7DD'
p58
sS'3D870339D882DEA346F640A297B02FD0'
p59
S'720C1637EC413AA781A963C1E5C4663E'
p60
sS'B612AEF8A7A94BDBD311BBE2B3282D8A'
p61
S'6DE0B9ECF8AC86892CEA4C1C75CE1246'
p62
sS'F54A10647069EC2B12888841863AD429'
p63
S'074A6C0FC9086EB691152FB663C5E6D8'
p64
sS'C99D21368FD83C1E939F159809AD4426'
p65
S'253EA480D78C075C7B2F888B5B411C47'
p66
sS'3F214CA497DC71782826DCAD187B3D08'
p67
S'D7959CC48F0352A2369FB4BC13445860'
p68
sS'80DEF95B0F73A96421FEF29BB987BF34'
p69
S'1DF714BF268150FB9E263BA9AC5D2DED'
p70
sS'CCE2F7F771C116270CCD53C4C6BC9B1F'
p71
S'287D4324E3389C5B97DE9064DC68F7DD'
p72
sS'547080149470FC77CFEA784D164149DF'
p73
S'C3224A6ABD9E19F674B597D4FF81F5A0'
p74
sS'89FD14ABF695069D5FFCE922B877EA5B'
p75
S'418FD4A8607AAC69CEEB39EF5F0A4F56'
p76
sS'3BE302B343C7B7BEB0B080465F6C4B88'
p77
S'C60FE98706B3D87E07DDD1FD7771B581'
p78
sS'A64D3A0A30D200A62DF6182F0276F35B'
p79
S'C7525EF95B3EBDC2E5F0D35D84B4922B'
p80
sS'CDDEE1F64774041EC349ECA2110B14E4'
p81
S'EB549BACBE9063A19A93B3A14AED268F'
p82
sS'233A3F909327D658CE1C6ABA18830271'
p83
S'6C18306FBAAC41DE827EA35505CE4497'
p84
sS'5EEBE6EE7AF2CD613DF9EA29C8BA402F'
p85
S'287D4324E3389C5B97DE9064DC68F7DD'
p86
sS'2956B617BC9FC67C3B4B815E02DF67B9'
p87
S'287D4324E3389C5B97DE9064DC68F7DD'
p88
sS'48185B045A79290627CCD1719037CB53'
p89
S'287D4324E3389C5B97DE9064DC68F7DD'
p90
sS'D03F63306FAD15A47297311D8A262E1D'
p91
S'287D4324E3389C5B97DE9064DC68F7DD'
p92
sS'E49F258AB2F4F043224EB2C9A96AF05E'
p93
S'E1F21E5EDDDD73DB50C4B051D5EEE370'
p94
sS'6C0EA515F364C5ED41EB67F72CF9DFE2'
p95
S'B7D5DDE0B2FC1CB1FAFDDA256CF096B6'
p96
sS'341E3E30744AE494D15F3108CE62D6FA'
p97
S'194C90AB709055FDAAEFE971CE506DD7'
p98
sS'3FCF13556BD6DF382534A58C5255FF10'
p99
S'287D4324E3389C5B97DE9064DC68F7DD'
p100
sS'4258931C6E38C530700E456BA330096A'
p101
S'640CD3CC95DB834BE673624C2E2C8274'
p102
sS'8F5ED212D1212DADCD31D73645564B70'
p103
S'A55537C77230FD4AC51BC85448CBB305'
p104
sS'600A910E2D65A1DD6E0BC4DC30F6792E'
p105
S'720C1637EC413AA781A963C1E5C4663E'
p106
sS'CFE6D65DA6D8978C80BE820E8CD2B671'
p107
S'720C1637EC413AA781A963C1E5C4663E'
p108
sS'7C8A5F7FC51AF507C7A76A80C8C56573'
p109
S'720C1637EC413AA781A963C1E5C4663E'
p110
sS'AA3193CEF3D986E3E1B731B0F56CC7C1'
p111
S'4A0EE013A56B9AAB6260871634C5D775'
p112
sS'E29C53D519DB91081EBDE6455DA7C13F'
p113
S'5BCD48EE0223A72FAA5CABCAEF80EC61'
p114
sS'C7C22E984A86E82E963F2964127D85E8'
p115
S'287D4324E3389C5B97DE9064DC68F7DD'
p116
sS'2E3DC54ADAB7BBC0604770B7DCE8CF35'
p117
S'35912CCD50DAF73EDA9B59F50150FDDF'
p118
sS'2AB2A0A20F4D7D35C1311F43EFDD7E22'
p119
S'287D4324E3389C5B97DE9064DC68F7DD'
p120
sS'2B840D0DDEB00D88C856FA44B1B0FDEB'
p121
S'6832A879481F7E3976841E81A8EA374C'
p122
sS'5FBB7ED8AC2BB18F75AE2726641CD1A5'
p123
S'7DDB11277FD31E5D5A09E28B7B73DEBF'
p124
sS'E523652952963AE222A9F7976260344F'
p125
S'720C1637EC413AA781A963C1E5C4663E'
p126
sS'8FA61EF5E817EEC6A8C20CACA519E0AE'
p127
S'720C1637EC413AA781A963C1E5C4663E'
p128
sS'086640F8EE07B3EFE69F041DF708DE3C'
p129
S'720C1637EC413AA781A963C1E5C4663E'
p130
sS'C61EED0F84F98879DF689FFF4584F156'
p131
S'B92466760EE76E41F41F40E7F0BC8BAC'
p132
sS'0EB399D82707FE567D3BD69C11E286D4'
p133
S'287D4324E3389C5B97DE9064DC68F7DD'
p134
sS'6B172C7A31E58457953A9F36EFBFE0E3'
p135
S'7C93F707A1C91E98E628FA188E00CC97'
p136
sS'5DC3CEEAC9417ECFB53FF5AAA35E7667'
p137
S'F55FE5FF8F873117A0756CA923FDF6D0'
p138
sS'9D11A3E068250851D28E93558DBAB822'
p139
S'720C1637EC413AA781A963C1E5C4663E'
p140
sS'C8A84690B9FC1AFB2A362196E4C86572'
p141
S'720C1637EC413AA781A963C1E5C4663E'
p142
sS'BFA86322198AD9866E312244063528BF'
p143
S'720C1637EC413AA781A963C1E5C4663E'
p144
sS'070D77536714AEF9C586948911608602'
p145
S'6BA3039E97DC756E847DC3C37ACEC6D4'
p146
sS'0A71C1474C603187426BD69AD96E3AFF'
p147
S'720C1637EC413AA781A963C1E5C4663E'
p148
sS'05D51820FC16023B918CE5C99490622B'
p149
S'4DFA01FA683832B38D9AF49D4FCC088D'
p150
sS'922C5993B7C7F8244DC3B022EA87FDF6'
p151
S'720C1637EC413AA781A963C1E5C4663E'
p152
sS'541509DD4539B544147E38AC86F6F9A1'
p153
S'FA900023E1D7CAFEC049E63E6072A79E'
p154
sS'D628992206A78F165ABB64D1BF874346'
p155
S'2A3CC3224E83E064BF9BB1C9472C613D'
p156
sS'FBD89AA825283A014F10376C3C7147F4'
p157
S'720C1637EC413AA781A963C1E5C4663E'
p158
sS'EB9F064B5AA0FA9B209AB5B8DBC3C5E8'
p159
S'28F9CFC54EDFD63727C31C69E64846AF'
p160
sS'D346DCAE5B5EF4AD3B10F3F8080CA357'
p161
S'287D4324E3389C5B97DE9064DC68F7DD'
p162
sS'98D71CD3C4A6D44170457FE15C795030'
p163
S'347B718FBDF9896E638CBAD71FCA8ADA'
p164
sS'DF565C86E680DCE58306497517FAD668'
p165
S'720C1637EC413AA781A963C1E5C4663E'
p166
sS'1F37746B599DC3D7ACCE568B73F26F49'
p167
S'78FE1470A5561158D41AEA2C69A3B70D'
p168
sS'0E019136009006880A294F69F123547E'
p169
S'2CEE8C0294D52AD792640B5BAE2B2C76'
p170
sS'C7B08C886184CDA839FDE876123969FE'
p171
S'F4D3F197224E176A167BF60F92C7D271'
p172
sS'C6A1FBA2147FA2C7AF015BD8D982E591'
p173
S'720C1637EC413AA781A963C1E5C4663E'
p174
s.