(dp0
S'D012C97592E66EEB3644F091B4814582'
p1
S'720C1637EC413AA781A963C1E5C4663E'
p2
sS'1C734A5FC955F361958EEB8078ABB1AC'
p3
S'720C1637EC413AA781A963C1E5C4663E'
p4
sS'D3E2A73317A24B31A164545D607CB979'
p5
S'287D4324E3389C5B97DE9064DC68F7DD'
p6
sS'6B45D92840692C1D9414CCB35FA251F3'
p7
S'720C1637EC413AA781A963C1E5C4663E'
p8
sS'347C3185EFF3729D6E72A22C2CCF3658'
p9
S'C9A690C2B529A347A2BF5871AF3ABC9E'
p10
sS'636A2809010C6DE683C8A23A954A4FF2'
p11
S'287D4324E3389C5B97DE9064DC68F7DD'
p12
sS'7CDC0E50EC05FA67FCE496178CA2F65A'
p13
S'A5C1448C60B12D2BDD83C7BD3DD3C36B'
p14
sS'F673823AA7E3A42511A8214D00B0DDF4'
p15
S'720C1637EC413AA781A963C1E5C4663E'
p16
sS'02607878BF0371BEA74A5E5E7150DCB4'
p17
S'287D4324E3389C5B97DE9064DC68F7DD'
p18
sS'31894DEAD87E1384341D6294261A8F35'
p19
S'ADBC84E48A179506C328F30046D1DA12'
p20
sS'3C1C36F186862C32FE3A04D224A889AE'
p21
S'DC6B918570B3B5A68FB89AA22A0FBF24'
p22
sS'74C93A5BFFF9BEC2D68FC1444A46F094'
p23
S'720C1637EC413AA781A963C1E5C4663E'
p24
sS'1E9D0107BFEB214FE43DC5AB5959A9DB'
p25
S'542320D1C34A9AA5726A1BC2B8C0CFEC'
p26
sS'1D88962F3F29FA377132197BF371A147'
p27
S'CBD7A0119F9030C5EBA9FAE7C711EC1D'
p28
sS'34F15A2F6860E3AFB7E5567815E470FC'
p29
S'56DDF4D8C0B4BC1EC9D42C809C2FD6E8'
p30
sS'00F2009577B74EC92568DC38E3E8BDCF'
p31
S'6D317271ECA6C24C01F137F2E74EBA7C'
p32
sS'D2A3A6A383A283CFE8CBDE851A3549AC'
p33
S'720C1637EC413AA781A963C1E5C4663E'
p34
sS'302976757041D275A3ABA248A87E8A0F'
p35
S'720C1637EC413AA781A963C1E5C4663E'
p36
sS'EB44DE53F3CD18DD2B097BD81AD0A3B3'
p37
S'287D4324E3389C5B97DE9064DC68F7DD'
p38
sS'D215EDD9D1BB0DFDDC97072B2C5C588E'
p39
S'720C1637EC413AA781A963C1E5C4663E'
p40
sS'69C7557883CD7C683B810C771D535B68'
p41
S'FA4BDC320861C03548A3CC67C301C8B7'
p42
sS'64EFB75674950CF553E59CE8B22B656F'
p43
S'287D4324E3389C5B97DE9064DC68F7DD'
p44
sS'1930CF41396A3FA31360F3280E568C0F'
p45
S'287D4324E3389C5B97DE9064DC68F7DD'
p46
sS'DB13FDF0B084F3818D1A96B3AABC1079'
p47
S'B4D389A48684A4649BC472FA60AA54C6'
p48
sS'F48B60DACA12D1546F277A467ED20786'
p49
S'AA95457A6D7090DB95218BEECF6BA638'
p50
sS'7F56205C78179A64C617FF6906C75F56'
p51
S'E0242CAA4F21FC854438702E8CC96ACD'
p52
sS'761F8E0BB87485FBDF50DC2F31704693'
p53
S'720C1637EC413AA781A963C1E5C4663E'
p54
sS'E4C46505718E3A52D342F824E788C7DA'
p55
S'BDD811ADB584DF6BC69B58EE4246DAFC'
p56
sS'39480ABC60764C05ABC768A7D6071740'
p57
S'E0242CAA4F21FC854438702E8CC96ACD'
p58
sS'0C7FAE3163AA2ED48C1F11EA87DE1B5E'
p59
S'720C1637EC413AA781A963C1E5C4663E'
p60
sS'9865476FB0D14EDDCEBED9501AE8E6F9'
p61
S'287D4324E3389C5B97DE9064DC68F7DD'
p62
sS'AF00428A2B4995B2910B79B650790A7E'
p63
S'DBAB7641FD1733974E9D25CD45A28D09'
p64
sS'35327699FA787A2B77211AE28448CA42'
p65
S'287D4324E3389C5B97DE9064DC68F7DD'
p66
sS'367BE6F0072469981900A6BD328E630A'
p67
S'720C1637EC413AA781A963C1E5C4663E'
p68
sS'F1757E289BC8713EDEEE56C209A5F8BC'
p69
S'BA175598D1CB81AD8F50120951C0BBF8'
p70
sS'58F7033FE03378F5E153EFB452E0B878'
p71
S'287D4324E3389C5B97DE9064DC68F7DD'
p72
sS'5B4B19B6C5672469BB98C01836BDD602'
p73
S'720C1637EC413AA781A963C1E5C4663E'
p74
sS'F0AA92C76B5C1CC6D8561DE783E5A87C'
p75
S'175D90B9D8B078EFEE0BBAC4E9EDD57F'
p76
sS'0130D733393DFEFAB53B031233D37978'
p77
S'F400280B3BDA7A7CDF7B569E60CA126B'
p78
sS'DEAEB97A8FA9956AA5811AE418B38108'
p79
S'720C1637EC413AA781A963C1E5C4663E'
p80
sS'97B5204AF9BD177532ED6BE4AA4E11A2'
p81
S'2E3F7626D8893D2E8E279D6D5055FD8B'
p82
sS'183E15730BCB59398AD4323A411849E5'
p83
S'CAF4654D12FB028EAAC1AAE849D1CE5D'
p84
sS'F4109E4F7DB9C9828B5F87A02E64632D'
p85
S'720C1637EC413AA781A963C1E5C4663E'
p86
sS'BD9FF140D2CEB88CD180802307E6D958'
p87
S'5D8D5DBBF6B7AD553A60F7491E34B34E'
p88
sS'4F86F212E5761D54D7922B63B976CE74'
p89
S'B0C62B62D60739F79805D8E8CE3D0804'
p90
sS'E00C6B6A7C33324D1104948D2E3B8EC0'
p91
S'720C1637EC413AA781A963C1E5C4663E'
p92
s.