(dp0
S'6F62F124D14881EB50AFA15DE235363A'
p1
S'720C1637EC413AA781A963C1E5C4663E'
p2
sS'95537F672379662F570CCD75332A2618'
p3
S'720C1637EC413AA781A963C1E5C4663E'
p4
sS'49B9DA61487F5A1E2A030C77B7E5A4DE'
p5
S'D4335737345B45025620141BE5874C9C'
p6
sS'F6EA74A2B03CBE66B57147CF97C40DEE'
p7
S'287D4324E3389C5B97DE9064DC68F7DD'
p8
sS'3170616E8F8F7120D2DA3EEBA8D27D9A'
p9
S'287D4324E3389C5B97DE9064DC68F7DD'
p10
sS'99D7B7D4C797BA29198A92F62920447A'
p11
S'287D4324E3389C5B97DE9064DC68F7DD'
p12
sS'71FFD2187BCF6965A32583CA2930D3F7'
p13
S'B7D5DDE0B2FC1CB1FAFDDA256CF096B6'
p14
sS'B6D654182B2742EBC82AC982C16CA8BF'
p15
S'720C1637EC413AA781A963C1E5C4663E'
p16
sS'5D258C89EC7243F0926B398AE81A2BFB'
p17
S'720C1637EC413AA781A963C1E5C4663E'
p18
sS'41DB5548C2F47F4330BE9B8F16819CEC'
p19
S'720C1637EC413AA781A963C1E5C4663E'
p20
sS'A46753F9115F2B68BAB7DA09DA6D7CB2'
p21
S'720C1637EC413AA781A963C1E5C4663E'
p22
sS'D256C2AE1FC7E869F884728E39E3F42B'
p23
S'720C1637EC413AA781A963C1E5C4663E'
p24
sS'9601BE9E3BBD471F61B7B4AE8F406DE1'
p25
S'3FD4A9E3E3108CB14507E76EB7E74CF8'
p26
sS'65DDD918E175ECCCA203BDD94968B302'
p27
S'720C1637EC413AA781A963C1E5C4663E'
p28
sS'2B56EAB73BDE598F17E82DC1566D886A'
p29
S'720C1637EC413AA781A963C1E5C4663E'
p30
sS'9D2C2FFD7A0BD1B795B22092B6CFB2B9'
p31
S'2D46200A7B787A1BE928DE81AC927F37'
p32
sS'737E0D0B19BA34CE231018CD77FB3CD0'
p33
S'4A0EE013A56B9AAB6260871634C5D775'
p34
sS'B20A368895C0EC2696D11AEBEFDCE3B8'
p35
S'287D4324E3389C5B97DE9064DC68F7DD'
p36
sS'05991127176F0B14551905422ACC613F'
p37
S'058E5218F876F0A814BF98C39CF74FD6'
p38
sS'4EAEB3F456B96823504EC74C63E7D5A9'
p39
S'287D4324E3389C5B97DE9064DC68F7DD'
p40
sS'12BCAEA84772B7BDFF0A0953A92B11E4'
p41
S'E4F7E35A6984E8D48CC0A374B8D0D480'
p42
sS'8364C17540DB1976784ABAF0CB3CD591'
p43
S'720C1637EC413AA781A963C1E5C4663E'
p44
sS'7150D636DEE4CD32DACD497FE2F76181'
p45
S'720C1637EC413AA781A963C1E5C4663E'
p46
sS'31DD889DDB469042E75ED9AE3E79748B'
p47
S'720C1637EC413AA781A963C1E5C4663E'
p48
sS'3747EA223136F6303C1E9EE75B1C4DCA'
p49
S'6DE0B9ECF8AC86892CEA4C1C75CE1246'
p50
sS'A7410FF27E0A263F25A03EEA30A983D1'
p51
S'287D4324E3389C5B97DE9064DC68F7DD'
p52
sS'BBD1D9CF616E5E5A05B861228CC89867'
p53
S'C60FE98706B3D87E07DDD1FD7771B581'
p54
sS'241C02B211435105B087D320928AFA08'
p55
S'720C1637EC413AA781A963C1E5C4663E'
p56
sS'D7F75BE443BA265C4C46F3B2EB300BE0'
p57
S'720C1637EC413AA781A963C1E5C4663E'
p58
sS'C9A9B4E5C61B8C53D7B892E476FDCC45'
p59
S'720C1637EC413AA781A963C1E5C4663E'
p60
sS'1E1A55A4583B498D7CF9B1296D0E0D02'
p61
S'1DF714BF268150FB9E263BA9AC5D2DED'
p62
sS'C2B67325BE51E97E7A93AEDBB55E6640'
p63
S'720C1637EC413AA781A963C1E5C4663E'
p64
sS'31D13ACB48709C036D47265A928F9224'
p65
S'287D4324E3389C5B97DE9064DC68F7DD'
p66
sS'ECED51BDC1819283319D29FE1EF7CC10'
p67
S'720C1637EC413AA781A963C1E5C4663E'
p68
sS'897F3ED8B3791573A95A2CC2DEB7DFDA'
p69
S'287D4324E3389C5B97DE9064DC68F7DD'
p70
sS'68E58CAB71E320D6E8157BC0FC32AF75'
p71
S'35912CCD50DAF73EDA9B59F50150FDDF'
p72
sS'B19CEA60AEF5EED751A718FFBE67F991'
p73
S'720C1637EC413AA781A963C1E5C4663E'
p74
sS'B8E699D39B1B7E14FCC8B143723A971C'
p75
S'720C1637EC413AA781A963C1E5C4663E'
p76
sS'F9EE9A5E839884B74B2C7E658C33A241'
p77
S'8F0053C5DB2BFFF158132DCBCD8536C2'
p78
sS'AB8FA803B2F692C13B0A762428E6C99B'
p79
S'720C1637EC413AA781A963C1E5C4663E'
p80
sS'FCD81F1B0AAE400DA993A221F4D86BE5'
p81
S'720C1637EC413AA781A963C1E5C4663E'
p82
sS'30C8D1C6E42E52D7215891C4D074EC9F'
p83
S'ECC22370678153DE4489ADF407A0E3E3'
p84
sS'2CD81C201F39AE1F6A218CDC8DC600B9'
p85
S'253EA480D78C075C7B2F888B5B411C47'
p86
sS'10D003C9F06D3ACC2A7E55B27214F8C4'
p87
S'4DFA01FA683832B38D9AF49D4FCC088D'
p88
sS'98CFBC41EB97920A9A8602AD28778F09'
p89
S'287D4324E3389C5B97DE9064DC68F7DD'
p90
sS'D6A416F3D2D1A5BF0F8255198F507D74'
p91
S'287D4324E3389C5B97DE9064DC68F7DD'
p92
sS'9577D93E4271F54F8C6AF68BFEC9B9CD'
p93
S'287D4324E3389C5B97DE9064DC68F7DD'
p94
sS'C8A3013304E8E16D8CE7754C635DFC00'
p95
S'287D4324E3389C5B97DE9064DC68F7DD'
p96
sS'6282AFAA23CC7FC89744F78928199979'
p97
S'720C1637EC413AA781A963C1E5C4663E'
p98
sS'784F2DF5CB87695403BD11C93DA0E22E'
p99
S'287D4324E3389C5B97DE9064DC68F7DD'
p100
sS'E6201A6E82916F045F32C8D26E4454F1'
p101
S'779D1A3021788807D85C1E12FC733529'
p102
sS'0115A40EDEF2E0911D6100952E8D4510'
p103
S'BD102324D63F2A9B16486D3818E975B1'
p104
sS'A27E5CD45D98612164221CA8A5B6D5FB'
p105
S'287D4324E3389C5B97DE9064DC68F7DD'
p106
sS'121D6BC178022725473E53AB72DB002B'
p107
S'720C1637EC413AA781A963C1E5C4663E'
p108
sS'1DB67494C08CCD2240352EC32FE7A862'
p109
S'FA900023E1D7CAFEC049E63E6072A79E'
p110
sS'BB7D6F5B6F1FB888ED1B15D86830B1E7'
p111
S'F880891B2AFC717CEF8CFF93F8BB206E'
p112
sS'7676456160AE16A64FDA81E083C918DA'
p113
S'287D4324E3389C5B97DE9064DC68F7DD'
p114
sS'9148B5675C2B04A2D1C9BF6B1F8F335F'
p115
S'C3224A6ABD9E19F674B597D4FF81F5A0'
p116
sS'C561302ABAD640E00BA3152AB9AAADCE'
p117
S'074A6C0FC9086EB691152FB663C5E6D8'
p118
sS'0DE491586F5F29D7AE72BF5BF2CF7EE3'
p119
S'720C1637EC413AA781A963C1E5C4663E'
p120
sS'4B880037CEB3621E10862F6E26D18867'
p121
S'28F9CFC54EDFD63727C31C69E64846AF'
p122
sS'F15345CF46579B00B5AE8C5F7B3FB372'
p123
S'287D4324E3389C5B97DE9064DC68F7DD'
p124
sS'B43B29D0B9F5F9D62F7A5DDEDF5DE0F7'
p125
S'720C1637EC413AA781A963C1E5C4663E'
p126
sS'628162044E9618F0BA8AAF146CCC78E9'
p127
S'720C1637EC413AA781A963C1E5C4663E'
p128
sS'D17863FD39A0F55AA6EFD66C7795A368'
p129
S'720C1637EC413AA781A963C1E5C4663E'
p130
sS'F528C2CE8719C36AEEA85C255D5A7DCC'
p131
S'287D4324E3389C5B97DE9064DC68F7DD'
p132
sS'BBEC91E794C31CF20A461E184016CDC9'
p133
S'287D4324E3389C5B97DE9064DC68F7DD'
p134
sS'DBB6B004F4A37D5DC3D8D0E60EA67C5A'
p135
S'92E1E9EF012FEF290833183536314BC7'
p136
sS'0FC1CDD9A705A214A1142F5EB751FC1E'
p137
S'287D4324E3389C5B97DE9064DC68F7DD'
p138
sS'A3F121B5CA284BB50BABEE81491488C6'
p139
S'720C1637EC413AA781A963C1E5C4663E'
p140
sS'8161ABBB92D62A3C78D02C72C5A0F401'
p141
S'287D4324E3389C5B97DE9064DC68F7DD'
p142
sS'160A0303C8266B0FC5C59B0C07EE2EC0'
p143
S'287D4324E3389C5B97DE9064DC68F7DD'
p144
sS'B0DE5F42CED15D933EFC2DF86B930EF1'
p145
S'720C1637EC413AA781A963C1E5C4663E'
p146
sS'2E7A1F337063BF45A4742CE4587BBAE4'
p147
S'720C1637EC413AA781A963C1E5C4663E'
p148
sS'84F70A65D9128EEBD483D45B174C5C2B'
p149
S'720C1637EC413AA781A963C1E5C4663E'
p150
sS'F05FE6AF8DE5D57B27F6D0E673DB385F'
p151
S'720C1637EC413AA781A963C1E5C4663E'
p152
sS'C32E2DF56388E6F2990C125D91EEC5A5'
p153
S'720C1637EC413AA781A963C1E5C4663E'
p154
sS'EEC7CE67671616A44800D312E9DE57CD'
p155
S'720C1637EC413AA781A963C1E5C4663E'
p156
sS'15D8A7166039EE2661D371077F9A9F75'
p157
S'287D4324E3389C5B97DE9064DC68F7DD'
p158
sS'9CEEBE63AA3140527D2DD9EBBFB636C5'
p159
S'287D4324E3389C5B97DE9064DC68F7DD'
p160
sS'C225B1BE85D1DC3415BC85440DDA161B'
p161
S'A55537C77230FD4AC51BC85448CBB305'
p162
sS'78A48E55152D9CB0397836156434D955'
p163
S'287D4324E3389C5B97DE9064DC68F7DD'
p164
sS'6C9472065E0D47792449A60C36E68841'
p165
S'B7D5DDE0B2FC1CB1FAFDDA256CF096B6'
p166
sS'21C751A95B52DCEDD108BBDFA950CD5C'
p167
S'720C1637EC413AA781A963C1E5C4663E'
p168
sS'BF5C096B133CA1D2269202B4BB5480F1'
p169
S'287D4324E3389C5B97DE9064DC68F7DD'
p170
sS'FBEFF5748571CD2B821F2FD852CBDD55'
p171
S'720C1637EC413AA781A963C1E5C4663E'
p172
sS'A87AC588AD872AECFEAA48EF81E3AC03'
p173
S'720C1637EC413AA781A963C1E5C4663E'
p174
sS'13D3A2F976A58093067840C5FDF9F611'
p175
S'720C1637EC413AA781A963C1E5C4663E'
p176
sS'54C3703C04DA8AF87428BA32C928F8B9'
p177
S'287D4324E3389C5B97DE9064DC68F7DD'
p178
sS'080CC6632B49B894168A5A0E93B0632C'
p179
S'19D2CE5E97A849196168AFCC4480ACCF'
p180
sS'0F0EC6962FCED6C083F38E3445C9C222'
p181
S'720C1637EC413AA781A963C1E5C4663E'
p182
s.