(dp0
S'5BA481A628B1B592F68636B10E4B07C0'
p1
S'F88D90D5B91CE123AAD023B8F19F60DD'
p2
sS'33A1386045951CDB2791757C5BAA0866'
p3
S'287D4324E3389C5B97DE9064DC68F7DD'
p4
sS'04FCE75D486B538E10DEFC8D0CA14EA0'
p5
S'92C39EBE86691EE191CFC0AED96613D6'
p6
sS'89D1C5ADB3CCAD9D2BF4ED48589E3672'
p7
S'287D4324E3389C5B97DE9064DC68F7DD'
p8
sS'A65DF5D10AA66848896F7E831CBC747B'
p9
S'BC0AAB1C2538707BF54193AC868FE1F2'
p10
sS'CE51F6C19F25B78129D60F1D2549AD6F'
p11
S'720C1637EC413AA781A963C1E5C4663E'
p12
sS'31A48AAE9514177921D4546D5EE11067'
p13
S'D289A7C8FCCF0D8F252F7EEEB78E03C9'
p14
sS'835C8D093AA502F95AD5A2566F593E08'
p15
S'865391AF60B44DAFFC8F5D646A7FE743'
p16
sS'C9F7285E8C973D5A58CE817A0A62DF01'
p17
S'287D4324E3389C5B97DE9064DC68F7DD'
p18
sS'9216BBFD03669AE39DB24E41C0A0444D'
p19
S'720C1637EC413AA781A963C1E5C4663E'
p20
sS'5270B195F57284F819AA6D2B8EC776DF'
p21
S'1A30ABCB9C2D4AA8E54DCCC139C065EC'
p22
sS'03EC4BDFFF0435CDB03CE63499541E16'
p23
S'287D4324E3389C5B97DE9064DC68F7DD'
p24
sS'A3501BE326E36B7F3D40681B36BCB57A'
p25
S'6BCBD30A2792687CE4DA222EB1CB34DE'
p26
sS'50160C7636A29752997F668D414DDA3B'
p27
S'287D4324E3389C5B97DE9064DC68F7DD'
p28
sS'1697E3B0A1755830723F8693C7E7199F'
p29
S'287D4324E3389C5B97DE9064DC68F7DD'
p30
sS'5ACE6375B5AC5C9A79A537486E43E751'
p31
S'7611F9D949410A07B1B4C5A79F848D77'
p32
sS'588785B161E1430A831BCE465C50A2F7'
p33
S'287D4324E3389C5B97DE9064DC68F7DD'
p34
sS'B1BCAF6A25766736A4EAA280BD0C56AD'
p35
S'720C1637EC413AA781A963C1E5C4663E'
p36
sS'7CA63AEC2E88475D3F44DF095C1A6071'
p37
S'F88D90D5B91CE123AAD023B8F19F60DD'
p38
sS'F0044FF33EFB83374D6FA7340F61372E'
p39
S'720C1637EC413AA781A963C1E5C4663E'
p40
sS'2801EEB974B7DAA54BB4FC5E56881333'
p41
S'720C1637EC413AA781A963C1E5C4663E'
p42
sS'F1958432705C1A568F3A4AF57EB8C7A1'
p43
S'AF034FE8DCA7E5147DAAA26E3918BE6D'
p44
sS'44385669871550C46B8A6FD06243BEA2'
p45
S'720C1637EC413AA781A963C1E5C4663E'
p46
sS'54B75C5029D01336F6F0723460961E4E'
p47
S'287D4324E3389C5B97DE9064DC68F7DD'
p48
sS'E7DC1F7D18F722193EAD950B461B60F9'
p49
S'720C1637EC413AA781A963C1E5C4663E'
p50
sS'13C0A0C7234818E5F9F8C352A4DCA20B'
p51
S'720C1637EC413AA781A963C1E5C4663E'
p52
sS'133C9798EAD457E3AD19778DBF0E17D3'
p53
S'287D4324E3389C5B97DE9064DC68F7DD'
p54
sS'53253C9029A5BC77A07CD5D5F3415028'
p55
S'720C1637EC413AA781A963C1E5C4663E'
p56
sS'3BFA00F1B8F8F4C51560BA9C7773D853'
p57
S'287D4324E3389C5B97DE9064DC68F7DD'
p58
sS'A8AF9A48A3AD5160939A19E0678C31B3'
p59
S'287D4324E3389C5B97DE9064DC68F7DD'
p60
sS'292F3987D71D80516B7FD9B2F6864C49'
p61
S'720C1637EC413AA781A963C1E5C4663E'
p62
sS'BCC43D84C360B6E6A388199CE8A45400'
p63
S'287D4324E3389C5B97DE9064DC68F7DD'
p64
sS'351AF9DEBC7B9605421BECEFF190C609'
p65
S'287D4324E3389C5B97DE9064DC68F7DD'
p66
sS'0949B79B840E341A2AE2EDDF0A5FB43E'
p67
S'287D4324E3389C5B97DE9064DC68F7DD'
p68
sS'F635FBB619004CA56E2DB2DCEEC2A942'
p69
S'287D4324E3389C5B97DE9064DC68F7DD'
p70
sS'96DDB95A9BE86F033838C7C7F189F787'
p71
S'CA0A10345B303CCF03DE551BB678A1A8'
p72
sS'B07BE6C69CDD4F0EC155D74B34CCBA32'
p73
S'720C1637EC413AA781A963C1E5C4663E'
p74
sS'2420E83893B2050D8006F3DE4D4B45E8'
p75
S'287D4324E3389C5B97DE9064DC68F7DD'
p76
sS'A44F13D49B7DDB3D4BCAC85E068B8F5D'
p77
S'287D4324E3389C5B97DE9064DC68F7DD'
p78
sS'053F63B53BFBB33D89E616E43AE43193'
p79
S'720C1637EC413AA781A963C1E5C4663E'
p80
sS'630B0836E9C9DAE1B015E357AF5FBE00'
p81
S'287D4324E3389C5B97DE9064DC68F7DD'
p82
sS'9806553CD879B952261471C9353FECFD'
p83
S'5E256BFD8193AB62817340274B3D9851'
p84
sS'8B77F229D551965F5EB8565A8DE00637'
p85
S'5A0BB14422765904102670189EB7441E'
p86
sS'0F6285B6FD8728B9305DFB85A58F359E'
p87
S'1D0D191E54FADDED1053C210D9BC56C8'
p88
sS'B857BBD5186C775948102A000D5BC683'
p89
S'720C1637EC413AA781A963C1E5C4663E'
p90
sS'0CEF14E4783AFCAAC185D97C7F0E3A12'
p91
S'720C1637EC413AA781A963C1E5C4663E'
p92
sS'926D0559C12AA2E7AEF8D1F3E037B799'
p93
S'287D4324E3389C5B97DE9064DC68F7DD'
p94
sS'96A7641AF78A55FC18468B02D0FC974E'
p95
S'C5478558E9C316C9285E0ADE259B1E6C'
p96
sS'01131B6325F532F64DA6F900E1936C14'
p97
S'AD0758C64F20C910B6AB10F9D4474582'
p98
sS'25F4528C236738D74D3D34426D1C381F'
p99
S'ECDF8D4AC38D720E5C6CF4426D7CD5AE'
p100
sS'2017EF28B0824EE46CCC146B3C9ADB64'
p101
S'720C1637EC413AA781A963C1E5C4663E'
p102
sS'947935F19381148BDF4EB6B1C28BB90A'
p103
S'BFDF91B87E6626B2B113E8A9BF98C718'
p104
sS'E82640D77CA5D2E2BF9D6B551F0DACA8'
p105
S'BC0AAB1C2538707BF54193AC868FE1F2'
p106
sS'0D109ACDAE586D60742C9B7A140EE47F'
p107
S'6BCBD30A2792687CE4DA222EB1CB34DE'
p108
sS'4BCC8251510C16635155984361E1F212'
p109
S'BD99C3DF0DE10E338B7D5FC1BEF071E2'
p110
sS'41010C56BC92A18EDB6017E2D0F3DEF6'
p111
S'720C1637EC413AA781A963C1E5C4663E'
p112
sS'5BFFD014D6BA1F2C6381412AB43A0DED'
p113
S'DC35254A03E43A80DD339089CC3A1996'
p114
sS'882ACE07FDACFD9F49B0441C540DA131'
p115
S'F2AAC1F9662765F90015422CFE5C8F5C'
p116
sS'AC1C72B032EA2EDEAAAB6BC6C96FC865'
p117
S'287D4324E3389C5B97DE9064DC68F7DD'
p118
sS'6749A4A47991AC35D68FF4561725DA1B'
p119
S'BC0AAB1C2538707BF54193AC868FE1F2'
p120
sS'9ADB51AB24D4106C6B053A54A99683E8'
p121
S'3758E342B78209F1D4DEA60DCAC790E3'
p122
sS'06BB4C08F850850C968C4BD892981E05'
p123
S'92C39EBE86691EE191CFC0AED96613D6'
p124
sS'82ABD2C32F629AA6382D4A1A909EA45A'
p125
S'287D4324E3389C5B97DE9064DC68F7DD'
p126
sS'C7DE6B5B0CD521B62B10F0B7203BFD7C'
p127
S'ECDF8D4AC38D720E5C6CF4426D7CD5AE'
p128
sS'78843274257DED46EB22EF8CA3739095'
p129
S'287D4324E3389C5B97DE9064DC68F7DD'
p130
sS'032B583D91EC83CDCBDEC8728CC7E302'
p131
S'410571D01FCB681CF6378CB9E8B97D50'
p132
sS'921511E437CA7437E867976460B8EE35'
p133
S'287D4324E3389C5B97DE9064DC68F7DD'
p134
sS'B368E405C42F014E066640D99AB2690B'
p135
S'287D4324E3389C5B97DE9064DC68F7DD'
p136
sS'BFC12078146413E54B239792A99BCB8E'
p137
S'923202B1D7EEAA98E7BB4AA435B10964'
p138
sS'B07D682EBBA471DED0E92177271638BF'
p139
S'575E8D57477099CD8C317AD410BEDDF2'
p140
sS'C4CE7B169392C70FBE22D45C674D33F7'
p141
S'DC35254A03E43A80DD339089CC3A1996'
p142
s.