(dp0
S'3307B3E8A196EF771EFA00852AA4DA8E'
p1
S'C5478558E9C316C9285E0ADE259B1E6C'
p2
sS'BA3D8542D5FED2CF3EDDBF3FD17CE214'
p3
S'720C1637EC413AA781A963C1E5C4663E'
p4
sS'4F23AD30A06E697DA6BE8BD3E5308EDB'
p5
S'923202B1D7EEAA98E7BB4AA435B10964'
p6
sS'02D0789A31DC3EB28A1F353F8A721B9D'
p7
S'287D4324E3389C5B97DE9064DC68F7DD'
p8
sS'A059CB707C49DFEE5E4B99DBBBA50AF0'
p9
S'720C1637EC413AA781A963C1E5C4663E'
p10
sS'980C385628ECD245109DD62E23F23BAC'
p11
S'3758E342B78209F1D4DEA60DCAC790E3'
p12
sS'8E87A52C14801BB42D7C7E896017A462'
p13
S'287D4324E3389C5B97DE9064DC68F7DD'
p14
sS'79587D6700499344699D86D95F091CED'
p15
S'720C1637EC413AA781A963C1E5C4663E'
p16
sS'41AAC5109AA66F2D06630226080AF03A'
p17
S'720C1637EC413AA781A963C1E5C4663E'
p18
sS'586315B23D8DC92DEB4C10CAFEF22D7B'
p19
S'287D4324E3389C5B97DE9064DC68F7DD'
p20
sS'7C8717260F51FA5F85C7A7DC5CC8CD21'
p21
S'720C1637EC413AA781A963C1E5C4663E'
p22
sS'A89BB0BE5DD458AC160E788AE612F183'
p23
S'BD99C3DF0DE10E338B7D5FC1BEF071E2'
p24
sS'4F6D7351D6211AE6484B97686FB7A23A'
p25
S'720C1637EC413AA781A963C1E5C4663E'
p26
sS'350DE26A84B90D9430FF47D813C6F47A'
p27
S'CA0A10345B303CCF03DE551BB678A1A8'
p28
sS'39A1BB074259C7E39B8F6B47DAE10260'
p29
S'92C39EBE86691EE191CFC0AED96613D6'
p30
sS'2E656DA6653AFD31160BDE6454ED1A78'
p31
S'287D4324E3389C5B97DE9064DC68F7DD'
p32
sS'76BDCC97BF6A7E4563D358933BF3C755'
p33
S'287D4324E3389C5B97DE9064DC68F7DD'
p34
sS'C61F98D495DCCE2933C8363795E04B52'
p35
S'287D4324E3389C5B97DE9064DC68F7DD'
p36
sS'C1FFACA9F67146EFA13A0F1E5F88BB6F'
p37
S'287D4324E3389C5B97DE9064DC68F7DD'
p38
sS'77876E88C187F68966797F398FCA3CE7'
p39
S'ECDF8D4AC38D720E5C6CF4426D7CD5AE'
p40
sS'706506477174219C60E505FD35CE2071'
p41
S'D289A7C8FCCF0D8F252F7EEEB78E03C9'
p42
sS'1A29E66CA3E2660EB6FD32F667E79325'
p43
S'5E256BFD8193AB62817340274B3D9851'
p44
sS'C25FE073B507126A247DAF4ABBF4BEC9'
p45
S'287D4324E3389C5B97DE9064DC68F7DD'
p46
sS'139A3A2EF82B52C5A593257B9D0B2C10'
p47
S'ECDF8D4AC38D720E5C6CF4426D7CD5AE'
p48
sS'17B2EE2F8E61DEDE9E45DAC3FE9089F4'
p49
S'720C1637EC413AA781A963C1E5C4663E'
p50
sS'1DDB017C7BAED2376AB9FE5945FA2FDC'
p51
S'287D4324E3389C5B97DE9064DC68F7DD'
p52
sS'6D35B073776B0A3F1B41EE8A3864E01D'
p53
S'5A0BB14422765904102670189EB7441E'
p54
sS'9B64868F43ED8D54C6FC8D41EBC613F0'
p55
S'575E8D57477099CD8C317AD410BEDDF2'
p56
sS'D747CC2D278A2332D6BB0767C4F971FC'
p57
S'AD0758C64F20C910B6AB10F9D4474582'
p58
sS'9AB9D78796D5C4978F7C39DDB91AB8CE'
p59
S'DC35254A03E43A80DD339089CC3A1996'
p60
sS'85B2A0557EC1A12BE678DC143732DBAF'
p61
S'92C39EBE86691EE191CFC0AED96613D6'
p62
sS'615A8B67DF0828FA2B5C7CF54B5A1015'
p63
S'BFDF91B87E6626B2B113E8A9BF98C718'
p64
sS'EB996A1E7B704AFDD45C81176051E8B4'
p65
S'BC0AAB1C2538707BF54193AC868FE1F2'
p66
sS'6ACE56005FD04A81F0DCB49F05CD031E'
p67
S'720C1637EC413AA781A963C1E5C4663E'
p68
sS'60B9D0874F880A6A5B82D6D8103E44F3'
p69
S'410571D01FCB681CF6378CB9E8B97D50'
p70
sS'237CE4567C9D1D4F45CA335D02A930BB'
p71
S'287D4324E3389C5B97DE9064DC68F7DD'
p72
sS'09CE6E541FFCADC3D5452D2359D9677E'
p73
S'F2AAC1F9662765F90015422CFE5C8F5C'
p74
sS'3428B4EBA78A218F97E2647BAAC648C5'
p75
S'720C1637EC413AA781A963C1E5C4663E'
p76
sS'213D276A40053003BA7D10EA6026E084'
p77
S'287D4324E3389C5B97DE9064DC68F7DD'
p78
sS'86D973661AEBEF5F8C945D3FE600AE72'
p79
S'720C1637EC413AA781A963C1E5C4663E'
p80
sS'2C1E2C0B2D273BA2FDEDCD1314AA7D9F'
p81
S'6BCBD30A2792687CE4DA222EB1CB34DE'
p82
sS'DB9779A64C51A6C4015F4662FC2E7A2A'
p83
S'287D4324E3389C5B97DE9064DC68F7DD'
p84
sS'022BA7D6EE18BEE4614A2E5322C2F8A8'
p85
S'6BCBD30A2792687CE4DA222EB1CB34DE'
p86
sS'2AC57657D9CAAF68963092EBD0707613'
p87
S'720C1637EC413AA781A963C1E5C4663E'
p88
sS'F3CA923A9E644B9C9648D87A1FEDE56E'
p89
S'BC0AAB1C2538707BF54193AC868FE1F2'
p90
sS'0062A70E813BA6E89E797DD8F52FEEFF'
p91
S'7611F9D949410A07B1B4C5A79F848D77'
p92
sS'BDA77DD6E035D9E00CB529A6B2C2651A'
p93
S'BC0AAB1C2538707BF54193AC868FE1F2'
p94
sS'2681F0660990D8A19FB78C5523B5028B'
p95
S'287D4324E3389C5B97DE9064DC68F7DD'
p96
sS'5E1933A718B2E3BDC2922302023E1CF8'
p97
S'865391AF60B44DAFFC8F5D646A7FE743'
p98
sS'1FDA456ABBF4A1343064C120F267AA28'
p99
S'287D4324E3389C5B97DE9064DC68F7DD'
p100
sS'EB4CE449A0898EB5463DCF5CA82D6E62'
p101
S'287D4324E3389C5B97DE9064DC68F7DD'
p102
sS'58600875C10165999E0FF2C4FACF59EF'
p103
S'AF034FE8DCA7E5147DAAA26E3918BE6D'
p104
sS'C3C4B926C64B3E22109BEDC3C24482C9'
p105
S'287D4324E3389C5B97DE9064DC68F7DD'
p106
sS'B1DC7D2F4E8E3EBD3FDFB641D19EA0FE'
p107
S'287D4324E3389C5B97DE9064DC68F7DD'
p108
sS'A11D9C4A4E2892B1262F6DC13E406F58'
p109
S'1A30ABCB9C2D4AA8E54DCCC139C065EC'
p110
sS'49E0AB244AC0F7C0C034136103625BF8'
p111
S'720C1637EC413AA781A963C1E5C4663E'
p112
sS'857DCBA1B17855D0CDAAC6637F050258'
p113
S'DC35254A03E43A80DD339089CC3A1996'
p114
sS'2480D989DD2988452F84D5A8F1988A54'
p115
S'287D4324E3389C5B97DE9064DC68F7DD'
p116
sS'59682F6D47BF23CAA710720382CED538'
p117
S'720C1637EC413AA781A963C1E5C4663E'
p118
sS'4A1BCA0916C10D782D80503BC87285E8'
p119
S'F88D90D5B91CE123AAD023B8F19F60DD'
p120
sS'46233D56D30321F861ACD92B15D952EE'
p121
S'287D4324E3389C5B97DE9064DC68F7DD'
p122
sS'7DB803C9765D1C8B2CD25377707E4F9F'
p123
S'720C1637EC413AA781A963C1E5C4663E'
p124
sS'590605FDCD4FA1EB21C44A5474CB2509'
p125
S'1D0D191E54FADDED1053C210D9BC56C8'
p126
sS'537AD95344563627B87AA527E9783EEC'
p127
S'287D4324E3389C5B97DE9064DC68F7DD'
p128
sS'983AF320528690F7A39A8D377E7E8F01'
p129
S'287D4324E3389C5B97DE9064DC68F7DD'
p130
sS'AC2D1FCECD0EAB2055C1EB7F4ABC2B29'
p131
S'287D4324E3389C5B97DE9064DC68F7DD'
p132
sS'2CE2C7AB2FCACB405BA730FA55576753'
p133
S'F88D90D5B91CE123AAD023B8F19F60DD'
p134
sS'73428438E5D341B091CDB5F1D53AD473'
p135
S'720C1637EC413AA781A963C1E5C4663E'
p136
sS'7825C4E2B5E40EAE0EC2C6B0F95CE439'
p137
S'720C1637EC413AA781A963C1E5C4663E'
p138
sS'D2C99F5D0D15301596275A4552BD0A94'
p139
S'287D4324E3389C5B97DE9064DC68F7DD'
p140
sS'DCC6A65C4165FF843D27565F75AED9B6'
p141
S'287D4324E3389C5B97DE9064DC68F7DD'
p142
s.