(dp0
S'A0991E13CC8800DC59D5D43B97CE6181'
p1
S'CA19A377661E7858D6DD376BEECF09AD'
p2
sS'AAFB817895675AAB6F8E3095659C18F7'
p3
S'F1F4F379CDA25ACE73490C05270CD7D7'
p4
sS'6DDF6BA02722953D7531948B82752BB6'
p5
S'720C1637EC413AA781A963C1E5C4663E'
p6
sS'B95B22A8E2B44EA36103CD7CDC309664'
p7
S'9BF356B4F53EB5AF08929FE4A2F56443'
p8
sS'765614070C71FBEC1B73DA8B4493B121'
p9
S'720C1637EC413AA781A963C1E5C4663E'
p10
sS'2DBFB20AD84D5835CBA8D862300F137B'
p11
S'70E28E711F422DD6C0C638CDD89C29E3'
p12
sS'DE07EFEF38822C68E419B595F5B3C2B6'
p13
S'720C1637EC413AA781A963C1E5C4663E'
p14
sS'B34F49B3E42A7921A8B6242C03A8282D'
p15
S'4ECC4B92EBA8757D70F0B1AA3212470D'
p16
sS'0F13E85C7C12A6660069E4A00D9E3C5F'
p17
S'0FB197EF6F793A3DDBE6CD4472E77B63'
p18
sS'5268084413D112667977FA6BEE7A7047'
p19
S'287D4324E3389C5B97DE9064DC68F7DD'
p20
sS'A40D6D2A37F9DAEF6C41D438C81BB264'
p21
S'720C1637EC413AA781A963C1E5C4663E'
p22
sS'A54C710757A36532973170E92EDFAD6C'
p23
S'720C1637EC413AA781A963C1E5C4663E'
p24
sS'29E2CCEC66B4D3F4813D9173F338493D'
p25
S'720C1637EC413AA781A963C1E5C4663E'
p26
sS'9045429873B7A58FCEF7FEAB28B3777A'
p27
S'FD39CA3D6B411ADDB9178FAB7BA4EAD2'
p28
sS'62BD3EF93CEBE078A3A06667F56A5689'
p29
S'287D4324E3389C5B97DE9064DC68F7DD'
p30
sS'9ACBD2E089383EECF7F2E20421B27AD5'
p31
S'287D4324E3389C5B97DE9064DC68F7DD'
p32
sS'B48A80E061ADF4C4A3C204A059A2B3EE'
p33
S'287D4324E3389C5B97DE9064DC68F7DD'
p34
sS'2D5FCB61EF3C863E06A2B8C2F860859B'
p35
S'287D4324E3389C5B97DE9064DC68F7DD'
p36
sS'8A02BF5C3C833307A5B4D5D107381AFA'
p37
S'720C1637EC413AA781A963C1E5C4663E'
p38
sS'95AD1A5AE99BC078EED9D74657401CD2'
p39
S'80C5DFAB93EC140B2FEEF53749DB77ED'
p40
sS'04D60478A9A29A8176854C8DED3EBA2E'
p41
S'44E207C6DEA90F882C4F4EF28BF04E10'
p42
sS'688A57AC38063375D948CFB241C58A25'
p43
S'720C1637EC413AA781A963C1E5C4663E'
p44
sS'7EAF6AC0B5098BD73B326613A72DD1CB'
p45
S'720C1637EC413AA781A963C1E5C4663E'
p46
sS'698AEE86DD2227CB220ADB6600EA5FB9'
p47
S'2FF075ED2A68D4CE9FF6ECBA042E9D8F'
p48
sS'BD7EBE3C5A319BBCC63842CFA702F67A'
p49
S'287D4324E3389C5B97DE9064DC68F7DD'
p50
sS'FA85DCA5FA451D78F1BAC2D2CD0C12EB'
p51
S'A30E83EB57E3A9194737BD967C7869BD'
p52
sS'66B3C48E578EF5E24D208A5CCB6BC584'
p53
S'720C1637EC413AA781A963C1E5C4663E'
p54
sS'A846D1BAE7DCE314A91D357BEB8C5C41'
p55
S'287D4324E3389C5B97DE9064DC68F7DD'
p56
sS'E396A9E5A3F7971097ECFA6FC86E0935'
p57
S'C071EB676FB8F14A6A2C6722C7167FEC'
p58
sS'EFB98E01A576305718C0F1DE4D36B980'
p59
S'C89203EE98C18F88536B220CAF915266'
p60
sS'04DEC49212BDF91383F38AE81D1D61FF'
p61
S'720C1637EC413AA781A963C1E5C4663E'
p62
sS'13225B88A4E145DBE4F8D1561E22D0ED'
p63
S'CB3AFB49439B7BCD1E813D62779F2B0B'
p64
sS'CBA2524460252F6FAB79103A0FCCDFE5'
p65
S'287D4324E3389C5B97DE9064DC68F7DD'
p66
sS'422E068D80F2C80B78278D7ED46B5158'
p67
S'287D4324E3389C5B97DE9064DC68F7DD'
p68
sS'71E7770541FB9DA664A8BA6F2C920032'
p69
S'720C1637EC413AA781A963C1E5C4663E'
p70
sS'9AB9D78796D5C4978F7C39DDB91AB8CE'
p71
S'DC35254A03E43A80DD339089CC3A1996'
p72
sS'867A083433E3555DBA784E4D72C0E8F4'
p73
S'4512E6094A667FE37C5B92894FB21D74'
p74
sS'44F25C24C54E012EE3A7D9057CF091E3'
p75
S'720C1637EC413AA781A963C1E5C4663E'
p76
sS'1B39652BFC0C2C931A80CA9519709FF9'
p77
S'287D4324E3389C5B97DE9064DC68F7DD'
p78
sS'58600875C10165999E0FF2C4FACF59EF'
p79
S'AF034FE8DCA7E5147DAAA26E3918BE6D'
p80
sS'237CE4567C9D1D4F45CA335D02A930BB'
p81
S'287D4324E3389C5B97DE9064DC68F7DD'
p82
sS'350DE26A84B90D9430FF47D813C6F47A'
p83
S'CA0A10345B303CCF03DE551BB678A1A8'
p84
sS'9AD86F7F997A50C5D8DB41D7EC6C714A'
p85
S'44E207C6DEA90F882C4F4EF28BF04E10'
p86
sS'234A570A03B4772572893B32E0026126'
p87
S'2B3D6100800676FD6F2FAAFF06C46569'
p88
sS'86D973661AEBEF5F8C945D3FE600AE72'
p89
S'720C1637EC413AA781A963C1E5C4663E'
p90
sS'D15B8833C59001EF791848EDEA388A5E'
p91
S'9CA0360AE440761F5C7D19A7C1AD5445'
p92
sS'53C476B7524550A85F0811312DD57E1E'
p93
S'705D5805AAD321645586BE811869DEE0'
p94
sS'5064DA98C8CCFE727F86B948E1B25292'
p95
S'A28E21F24C9F546A89849CBA604881B5'
p96
sS'FBE48B8F9205F2CCA3373C109F1C6794'
p97
S'720C1637EC413AA781A963C1E5C4663E'
p98
sS'E571BD8BF9E21BA308DDA03AA4A23977'
p99
S'287D4324E3389C5B97DE9064DC68F7DD'
p100
sS'7762A74858E31338B68CA0E0F7FE563D'
p101
S'2C559AC7B6AD67379A193564695CF5B2'
p102
sS'B5EDD934B535D4F451D42C472FE54234'
p103
S'720C1637EC413AA781A963C1E5C4663E'
p104
sS'0BD81CAD2B854EFF7BDA3F8697CCBECC'
p105
S'EF325C65B5B6EA5276CF24FACF35350E'
p106
sS'B01248C653552382E33EFCDCFAEC1AE3'
p107
S'F3CE14614481D1E12B02D3B1A9401577'
p108
sS'CA50D7F69D11858F35A460EA4DCB4665'
p109
S'720C1637EC413AA781A963C1E5C4663E'
p110
sS'66CB1150239C55EE18393AD096AF7984'
p111
S'923202B1D7EEAA98E7BB4AA435B10964'
p112
sS'9EC30939142A9190FEFF82670828B77E'
p113
S'720C1637EC413AA781A963C1E5C4663E'
p114
sS'94233CE6DCA8F1703EE6BABBD157A3D3'
p115
S'720C1637EC413AA781A963C1E5C4663E'
p116
sS'D19B25DEF6081CC4D0208F0909F3F570'
p117
S'720C1637EC413AA781A963C1E5C4663E'
p118
sS'8080D9D371200F65314E7165264079E6'
p119
S'A061E371DA65087340207DB0C485DA87'
p120
sS'16A49E296CAA9A1F7B5D9F4A0A42A382'
p121
S'720C1637EC413AA781A963C1E5C4663E'
p122
sS'9507C9EE9BE088B5A1C1CCBF5D96232F'
p123
S'720C1637EC413AA781A963C1E5C4663E'
p124
sS'5A8A40CC155F5209331FDB946243B9AB'
p125
S'720C1637EC413AA781A963C1E5C4663E'
p126
sS'C65C60B98911B4051AD61EDC71189615'
p127
S'CE590D4818192FD95666C66919399376'
p128
sS'82E05F13C55EDD910F5F1B2A352D6C82'
p129
S'720C1637EC413AA781A963C1E5C4663E'
p130
sS'33AEDB3FA0D30F83BC6E9BDC5AF8B120'
p131
S'287D4324E3389C5B97DE9064DC68F7DD'
p132
sS'D2213F14D5D562B163E8CC6BE57020C4'
p133
S'0B08AC842CEBDFF27A7F350AD37348F7'
p134
sS'9E5232A5F66991C3E0A13590A653350A'
p135
S'287D4324E3389C5B97DE9064DC68F7DD'
p136
sS'5DFAAB7F55AAB5697B07CECB97794B77'
p137
S'287D4324E3389C5B97DE9064DC68F7DD'
p138
sS'52EE4F5AA99159E0EAE3447EA3513CEA'
p139
S'91BB0AF1FD383482545891BE919CD98F'
p140
sS'8FA04EDD430FA237948231225FCACCD3'
p141
S'287D4324E3389C5B97DE9064DC68F7DD'
p142
sS'4B880037CEB3621E10862F6E26D18867'
p143
S'4A0EE013A56B9AAB6260871634C5D775'
p144
sS'7E244A9D4CF47FB7EDD98BF3AE0A7646'
p145
S'720C1637EC413AA781A963C1E5C4663E'
p146
sS'50D4BDE185E37AE55FC7DC28539BABD1'
p147
S'23B7534F27248A84B62EF32D6704EEE3'
p148
sS'EA47A8F705DC45B59414DF48442550CD'
p149
S'4AE9A43CAB92A3F35C4937A03A43A615'
p150
sS'153B2D57D6C45E09D5ACFABFAC9FEBA6'
p151
S'8FC3E0118F9A947E4D6A649CC81360CE'
p152
sS'E26FBA9CF763B4360100BABEF4340155'
p153
S'720C1637EC413AA781A963C1E5C4663E'
p154
sS'7CBF1C66DF39F853ED23BFA37EE4E4CD'
p155
S'F5557C32335ECE64F7E86DB58FDFB525'
p156
sS'54C51C0D9CCDD58A61D0E526564067D0'
p157
S'720C1637EC413AA781A963C1E5C4663E'
p158
sS'F42EE012561F57C4388FF9D83E50FF51'
p159
S'A2EB88E317A9DD5D50869CFB77B2209C'
p160
sS'546B21300A2F9D8EE62BC7B645B76D19'
p161
S'720C1637EC413AA781A963C1E5C4663E'
p162
sS'090F3BDE095A76363E177133448B0C4B'
p163
S'720C1637EC413AA781A963C1E5C4663E'
p164
sS'094B5EB473294874EF4D89EAA63B5218'
p165
S'6C18306FBAAC41DE827EA35505CE4497'
p166
sS'30217723314EC2CD9CA97FB2504110B2'
p167
S'7EC9B0A4203C4400E89B95740DA9BF50'
p168
sS'B43B29D0B9F5F9D62F7A5DDEDF5DE0F7'
p169
S'720C1637EC413AA781A963C1E5C4663E'
p170
sS'0AAC4A5A5E1B241BE7B2B4D1829DB865'
p171
S'BD5EC75562CFB78FA21A110841B8D4BE'
p172
sS'3443B708690CDF13C39EB81656C58773'
p173
S'720C1637EC413AA781A963C1E5C4663E'
p174
sS'E02430769BED6BDBE43970345C448A6E'
p175
S'287D4324E3389C5B97DE9064DC68F7DD'
p176
sS'1E1A55A4583B498D7CF9B1296D0E0D02'
p177
S'EB549BACBE9063A19A93B3A14AED268F'
p178
sS'4A687879B39E950CB133A651D31869C8'
p179
S'ECDF8D4AC38D720E5C6CF4426D7CD5AE'
p180
sS'D64DEA2DEAA0AE78F1934FB30E2065B7'
p181
S'287D4324E3389C5B97DE9064DC68F7DD'
p182
sS'E6ACBBDA38656DC9D0575B3A591B4290'
p183
S'287D4324E3389C5B97DE9064DC68F7DD'
p184
sS'259EC8E45E2E56142DADC62F6597E70A'
p185
S'E475E078491EBEDFAFB867676378EC5D'
p186
sS'33557C827D514DCB8BF681744A9E2161'
p187
S'EDAD67A7870137E4AE0CF70581CD160A'
p188
sS'36E9D4CE200BE32152F4588F38567B4B'
p189
S'287D4324E3389C5B97DE9064DC68F7DD'
p190
sS'62C376CB99BDC7EADB55D71A74225E03'
p191
S'C894BD14812EB1EF597533AA3C7873B6'
p192
sS'9AA6DAE26AD5212506B866D31031A437'
p193
S'B79EFD7259D91C7C6CB268E08F428A33'
p194
sS'D3F967034044244F6F2E0A35C2F0B13E'
p195
S'720C1637EC413AA781A963C1E5C4663E'
p196
sS'36B6FE641286762DEB557F4B863CCBCD'
p197
S'287D4324E3389C5B97DE9064DC68F7DD'
p198
sS'56ED9774B449543F9B9763F1F08C2FF1'
p199
S'923202B1D7EEAA98E7BB4AA435B10964'
p200
sS'CF3B30A1CA52ECA53AE5492D14F41A08'
p201
S'720C1637EC413AA781A963C1E5C4663E'
p202
sS'25517D4D2E14C39832B05A74DDFFA971'
p203
S'75C6C33B177E47F7816E8EB8CBCF6270'
p204
sS'30883F7BB2A58754C3EEADA22C7464E6'
p205
S'DAF32A75FAE0629489814517C753F531'
p206
sS'BC4808A9B6EE342AAFD8BB52A97706B3'
p207
S'09B9B178FDB6423C8F6EAD87F7CE1A92'
p208
sS'DF002A04A4D01D77D51F12C659B670E8'
p209
S'287D4324E3389C5B97DE9064DC68F7DD'
p210
sS'E2268BB80373B38F9323A11E66C19E99'
p211
S'A7CAFF3413FC954EC67DF3C6FC9EE592'
p212
sS'3747EA223136F6303C1E9EE75B1C4DCA'
p213
S'A39698BA90D976EC5292B58DBF06A890'
p214
sS'431E5F823ACE68993AF4A5C10F11B1C1'
p215
S'3D0AAF4731F0FA3B222EB984113E53BF'
p216
sS'24C29575F12CDFD45619026DB804D824'
p217
S'1EC77BC9879091E8D7F87B9A03B59EF8'
p218
sS'24B87800FC7C81BF4BA020513B3C7D1C'
p219
S'05C27D936E2A6A66CE36ECA0E91E4430'
p220
sS'6C0D35CEBA4FDEE03AE0D4F699A6E746'
p221
S'287D4324E3389C5B97DE9064DC68F7DD'
p222
sS'2982F6901F92B405F109F7C34071758B'
p223
S'44E207C6DEA90F882C4F4EF28BF04E10'
p224
sS'0E60235EDF60D659D94A8ED29E27E5FD'
p225
S'287D4324E3389C5B97DE9064DC68F7DD'
p226
sS'25B960732F99FEAA3C7B42C0828BEF1A'
p227
S'287D4324E3389C5B97DE9064DC68F7DD'
p228
sS'EDCEDBBD03D3C7B9E45D8791845F8832'
p229
S'287D4324E3389C5B97DE9064DC68F7DD'
p230
sS'B7180BE45582DFA45916C53C1AAC0C23'
p231
S'720C1637EC413AA781A963C1E5C4663E'
p232
sS'28FAFA22CB95CB4C6EDC0E0CD31747B6'
p233
S'A5C1448C60B12D2BDD83C7BD3DD3C36B'
p234
sS'B3F8DDFA0C890F16C1917D73D621E2B4'
p235
S'287D4324E3389C5B97DE9064DC68F7DD'
p236
sS'C80FC3B7AF6C951B1F94DAA97185E7F2'
p237
S'03EE9DD89FEBFAD9665B5CCA6A94F14E'
p238
sS'2CD81C201F39AE1F6A218CDC8DC600B9'
p239
S'7C93F707A1C91E98E628FA188E00CC97'
p240
sS'61AE7F0C30025BCA83979CFB474893BD'
p241
S'720C1637EC413AA781A963C1E5C4663E'
p242
sS'55555195353402491D0B4BF3936D38C9'
p243
S'6FD1EDD5A157627929DFBE0CD90D754E'
p244
sS'3AF198DE8E6B73F7D387435E6EC68985'
p245
S'469CF6842EB1332B9257770B90F95B3D'
p246
sS'F547E2A4C955C115E95D5EF33BFE8233'
p247
S'98DDE76F593E46F176B3D79E2F8A3181'
p248
sS'CB485C5FE6EB8383BC20B45EE5AC8A75'
p249
S'75C6C33B177E47F7816E8EB8CBCF6270'
p250
sS'10D003C9F06D3ACC2A7E55B27214F8C4'
p251
S'299B26EBB3B3712F2978EAD585BC6098'
p252
sS'ACC937A6CE2286F89607DDDE6DAAD5B7'
p253
S'720C1637EC413AA781A963C1E5C4663E'
p254
sS'627853B4E5190FE41C7650ECEECD3D45'
p255
S'287D4324E3389C5B97DE9064DC68F7DD'
p256
sS'4459EF2310FE577EA96E8374AA943AAD'
p257
S'287D4324E3389C5B97DE9064DC68F7DD'
p258
sS'6508D3E2B9CB3B8602B67EC3D5ADAFE4'
p259
S'CBD7A0119F9030C5EBA9FAE7C711EC1D'
p260
sS'4E09E2C8C4F159FF54615F21057F2ABE'
p261
S'C0892AA3B59FFEB615EC7F2741AD7E2A'
p262
sS'20EA4290D5B1AA3B9BC006C5B8DC3ACB'
p263
S'A52307A1D3AB2CDED1ED11BF981503C5'
p264
sS'2DB884928956B2F5D31B0CD082160B2C'
p265
S'6C06C48D3CBBAD9495F3BE1C9A5CA348'
p266
sS'11B04DD861291F3F0990BA6732CB6FDF'
p267
S'91EF5AD0F59E7FDF5FFA8E72BADA78D9'
p268
sS'F84291C8A3FFE0B86B117DDF588DBAA5'
p269
S'720C1637EC413AA781A963C1E5C4663E'
p270
sS'A6E0F1C862BD957A3BA9CA845D398A91'
p271
S'287D4324E3389C5B97DE9064DC68F7DD'
p272
sS'7AEC7D777EBA7E9362012FC8763C7B02'
p273
S'E72BE085987AD1FF30B7497451CA6FBC'
p274
sS'E1D0D8E1B5332A9331E56A90B93C50D1'
p275
S'8568D947B460515981C858A53A410D98'
p276
sS'026DC9F21528AB1B11B9761DB154C1E9'
p277
S'C59BB172C594FF701EAE87D64EA3D192'
p278
sS'EF0B1F3B7EC3944436CD0380BFA95271'
p279
S'DFC33B4DBE0D1FA50ECA3C436641C00F'
p280
sS'341FBF03707E4423910D5F362F8285FE'
p281
S'F55FE5FF8F873117A0756CA923FDF6D0'
p282
sS'9BB5A57E942DE7EFC90A5A5BE3347604'
p283
S'287D4324E3389C5B97DE9064DC68F7DD'
p284
sS'A731A309E4047481CF472408C61ED7C6'
p285
S'52051BB00D0C0EB5E7B24EF0FBFECF76'
p286
sS'2C8F9BF15F3BE519C207EA3F9B7DAB16'
p287
S'720C1637EC413AA781A963C1E5C4663E'
p288
sS'C9DE50A4FF9D67EB3B248433F346D7C7'
p289
S'34D2D66D1557AE4978E86A81201813E2'
p290
sS'D9028593E2BA56D5C86E7DACE56F16E4'
p291
S'CABA59F7DE595C3B0D67284DFD07A72B'
p292
sS'8528F1F3F5A377DB998DC32E691748BE'
p293
S'F8FD826E20712855100246234AA16EA9'
p294
sS'2B8444D80F3A14AD0A40D3A22F5AF667'
p295
S'287D4324E3389C5B97DE9064DC68F7DD'
p296
sS'AB47A8B91D44F17FC9C410A0A346A330'
p297
S'287D4324E3389C5B97DE9064DC68F7DD'
p298
sS'753A6F8045A2BAA3B55DD87ABF8E8920'
p299
S'720C1637EC413AA781A963C1E5C4663E'
p300
sS'10741A61F3073DB07438C1D03BE2A8E7'
p301
S'F989C6AE8A80C5274AE7C54A0E50FB48'
p302
sS'7676456160AE16A64FDA81E083C918DA'
p303
S'287D4324E3389C5B97DE9064DC68F7DD'
p304
sS'9B5D635F8B7E2EF4398E115B86F6DBF5'
p305
S'287D4324E3389C5B97DE9064DC68F7DD'
p306
sS'103AFC38B46392BE30B1AE3472574AAE'
p307
S'287D4324E3389C5B97DE9064DC68F7DD'
p308
sS'610AE775EDEAB9910BBB02ED6F87D24E'
p309
S'720C1637EC413AA781A963C1E5C4663E'
p310
sS'9148B5675C2B04A2D1C9BF6B1F8F335F'
p311
S'C3224A6ABD9E19F674B597D4FF81F5A0'
p312
sS'946C5F38776015886D73F96C4CCF847E'
p313
S'287D4324E3389C5B97DE9064DC68F7DD'
p314
sS'B496C2F177E06BF42F9ECB8356962FCD'
p315
S'F17317C52070CF8E98FA766CF6F38FF7'
p316
sS'BAF2CFE83ACC75E0A789CCCC0DB7D20E'
p317
S'CB3AFB49439B7BCD1E813D62779F2B0B'
p318
sS'E7FB9874242479072E3A3A546A230E39'
p319
S'287D4324E3389C5B97DE9064DC68F7DD'
p320
sS'BD5BDFCEAEDC19D1F13B9D592FADF765'
p321
S'287D4324E3389C5B97DE9064DC68F7DD'
p322
sS'615A8B67DF0828FA2B5C7CF54B5A1015'
p323
S'3758E342B78209F1D4DEA60DCAC790E3'
p324
sS'9A3781E7217D4FC7DEE29F619D346603'
p325
S'AF643BA90D7857ED69A7A6484CEB0225'
p326
sS'A311D1791126533C7DA0E99828585EAA'
p327
S'287D4324E3389C5B97DE9064DC68F7DD'
p328
sS'6D27E82D04F47678D7A8E46E0B466DE1'
p329
S'7611F9D949410A07B1B4C5A79F848D77'
p330
sS'A1110B3AB34EA9B02ED5EC428B48D1DB'
p331
S'548B8D7A4382CDF58ED005BE75B31157'
p332
sS'020E2C9A1E5ED03B5FE7730274EB2E48'
p333
S'3C57BF5CBD6F7C8BC58FA6417D216639'
p334
sS'F3E9E62563E4D48EDA08AF862DF94F07'
p335
S'287D4324E3389C5B97DE9064DC68F7DD'
p336
sS'74C22508DDB9A78B1744EA6DC19AA299'
p337
S'923202B1D7EEAA98E7BB4AA435B10964'
p338
sS'FF2815DAA450B6E79E75DF6CF9AF5DC2'
p339
S'B8F690D022F3318BAC60105E12971B8B'
p340
sS'FD3CDBA7D974C0660C7236B2B8C1D531'
p341
S'720C1637EC413AA781A963C1E5C4663E'
p342
sS'473C942C9E6696C6ADCE47F083F9F3F0'
p343
S'09AD154CD439820A51BA23C01617C96D'
p344
sS'63BD6013AE8CF977BB029612375DD078'
p345
S'EEE9B4F9FFF5A0588EF987A06A833422'
p346
sS'AF20DE85556DAF6ABD16687132B5486F'
p347
S'287D4324E3389C5B97DE9064DC68F7DD'
p348
sS'8F8255EB79C411BABCBC657A0B66D45D'
p349
S'720C1637EC413AA781A963C1E5C4663E'
p350
sS'7455B68D5B050E7880F2795594425E9B'
p351
S'720C1637EC413AA781A963C1E5C4663E'
p352
sS'905D8F1B6E6EDCF8B5221014DDFA2BB0'
p353
S'5A0BB14422765904102670189EB7441E'
p354
sS'8C775E2BC444A4E1FF14B6E544202528'
p355
S'287D4324E3389C5B97DE9064DC68F7DD'
p356
sS'07CF25729B662DD29DEB2BF7A1A1CEC3'
p357
S'287D4324E3389C5B97DE9064DC68F7DD'
p358
sS'553FA26B50F683D3FEE128ADD71CA698'
p359
S'7C36498F9CDC065D1C8B6ABBA24AEDF0'
p360
sS'51DC5FBFB5E2C825C0E9B206BE0EBC05'
p361
S'44E207C6DEA90F882C4F4EF28BF04E10'
p362
sS'020B64CB864B120F891B5B67A71AE128'
p363
S'287D4324E3389C5B97DE9064DC68F7DD'
p364
sS'687D7DD27D089B58982D80C28C63808F'
p365
S'287D4324E3389C5B97DE9064DC68F7DD'
p366
sS'0D18A8EC0109EAFFF9FAEEB94AE6E895'
p367
S'720C1637EC413AA781A963C1E5C4663E'
p368
sS'09878AD05FF134C4BC22C6F18CDEC545'
p369
S'45C7ECF227E88448C06666E7FCDB1BFA'
p370
sS'4F1FE58586C7B5402875F04B184D4338'
p371
S'128E8E7E6B023AA114E803662C755B3A'
p372
sS'D2A689F8A886F4449B579F6F7A993AC0'
p373
S'720C1637EC413AA781A963C1E5C4663E'
p374
sS'B662786839C0FFCFDD6B8AFBC31C6B33'
p375
S'287D4324E3389C5B97DE9064DC68F7DD'
p376
sS'52B7A5147F4B8D2C50A138866914C031'
p377
S'16A9EBF2BB041356521C1FD5631586B2'
p378
sS'9D983645F4F3B968D50D8664097D0262'
p379
S'44E207C6DEA90F882C4F4EF28BF04E10'
p380
sS'000DB3F122A2D21FB585476198F1C530'
p381
S'50C68A9FDC4510EF6CC433240C223FC4'
p382
sS'A57A74445F2C59D4266B37E453A4B54D'
p383
S'287D4324E3389C5B97DE9064DC68F7DD'
p384
sS'39175F360A6CF1C69BF95E28A68EA15D'
p385
S'44E207C6DEA90F882C4F4EF28BF04E10'
p386
sS'56CA5307D46FB7A06653F6D2B45866E2'
p387
S'316F8566527AA64D7E94DE150DF3DFF2'
p388
sS'9D5B1A67C1D357A71A6E77051058E4C6'
p389
S'287D4324E3389C5B97DE9064DC68F7DD'
p390
sS'459CC21EC35D362DB1EBEF56C486D8AD'
p391
S'2AECD3F2E6F3DF72E78217BB31EE33DD'
p392
sS'857B1FFC4DF2FB3B51050848AE7B27C0'
p393
S'00A64A0B7D2FAC8370D5C07702B8AE9C'
p394
sS'BB9FEB65BF004EA8738455CE00D4D545'
p395
S'7B8C37B6B6378EB95CE23326C1AA2C49'
p396
sS'C87CAF3DE5A95DA44B7AA18FF8EE20D9'
p397
S'720C1637EC413AA781A963C1E5C4663E'
p398
sS'39609C354EC8A75F1A21EA02D108C32D'
p399
S'2E2DF8924509F7DD3F109E98B9E2BBBA'
p400
sS'F7476C7FC1758A1B2F1D36F0950370A8'
p401
S'287D4324E3389C5B97DE9064DC68F7DD'
p402
sS'9798C5965918737201698A800FF1BD25'
p403
S'3F5847E26F87ED21272485F0403704B5'
p404
sS'A8B420C5671504E2A545EBCD319206BC'
p405
S'4369CD49D4BB6D00ABA07654B030A95C'
p406
sS'42ED693C4296D504BD664163CCEEAC45'
p407
S'D1ECF06A5FDB1A3DB659180EDB716DC8'
p408
sS'A8920FBA20AE0CA49AEFE8C14E60580E'
p409
S'287D4324E3389C5B97DE9064DC68F7DD'
p410
sS'EAFA47194423D7ECBF69916BE6423DBD'
p411
S'720C1637EC413AA781A963C1E5C4663E'
p412
sS'0218E13B0E665998C604DE60AD385B3F'
p413
S'76F8AD97029A9F2C016A6A9DB1220C33'
p414
sS'CBA1F6883EFD94331565D501E947CBC7'
p415
S'35E41A091779F077C8C2B3EFA5619F2E'
p416
sS'58DE3ACF58A7B43D187F3BBD2491D89A'
p417
S'8CF1661781A9BE28C5057DAD9B4C44D9'
p418
sS'C36D2087761700F10EF194F1AA5CBC5B'
p419
S'57B7F75C5566034B2E6A1C8D6ED929CE'
p420
sS'494DE6D9CF210E30C6369DC829CBF9D9'
p421
S'720C1637EC413AA781A963C1E5C4663E'
p422
sS'CED4D9776C5FCA0A13C8F1635BD451C9'
p423
S'287D4324E3389C5B97DE9064DC68F7DD'
p424
sS'22986D62F4DFD0A3C8AAAC5DDA265B40'
p425
S'287D4324E3389C5B97DE9064DC68F7DD'
p426
sS'C1B166B7B7FC8A657AA85F9175D70530'
p427
S'FDA55B42E7E7BA8BEBCA1CA055B9C71D'
p428
sS'3E861EDD84FFDD9725E17E81F2B02B59'
p429
S'287D4324E3389C5B97DE9064DC68F7DD'
p430
sS'D878F732BCC53BA0CF2EC10CE4481C32'
p431
S'604CCEB8F37816D4C8459AB29CBB6214'
p432
sS'EE9B9B06031A54BB3EC9B78DE91E77C2'
p433
S'287D4324E3389C5B97DE9064DC68F7DD'
p434
sS'C61F98D495DCCE2933C8363795E04B52'
p435
S'287D4324E3389C5B97DE9064DC68F7DD'
p436
sS'A3372267B68B3B539721658B842BBC5F'
p437
S'5575F38D93F4B2A85610A9AEB2F2E8A2'
p438
sS'582C74FA5A4168A42396C04ADCBB1445'
p439
S'F7DB9E118E9E252B10F6DB7FA0C8C104'
p440
sS'737E0D0B19BA34CE231018CD77FB3CD0'
p441
S'28F9CFC54EDFD63727C31C69E64846AF'
p442
sS'A74FD0F42E255F23CAEC14DC4DD5FACF'
p443
S'287D4324E3389C5B97DE9064DC68F7DD'
p444
sS'793FB30B53246BF23181F706DECE0CE5'
p445
S'B5822C66664ADBE4E267FC2DFEF36491'
p446
sS'E4DE9FD2E38C92EE9B39FD2FD7FB96F6'
p447
S'720C1637EC413AA781A963C1E5C4663E'
p448
sS'CCDB15A0ED6E229DC9D19C44FFB2C6CC'
p449
S'2958653245A452DEEB73AF49C264250F'
p450
sS'3D7D7995B76064B67B9A5D10DC017AB5'
p451
S'EB2B1C183C3F5F38A1D28ADF6657D4CF'
p452
sS'08E149B9E58EBE0917B6CF49E8ABDB07'
p453
S'84EAC991923BCB2FDEBDDD8A1F1556DF'
p454
sS'1BB0DDCCE352B4364BE584A597B336E3'
p455
S'55AC2A4DA42EFE4BC4A20E672AC3352A'
p456
sS'469B85B7916A22B9880C18C25A6DA279'
p457
S'E606A7B986C9FB7B428A56170FAF9380'
p458
sS'1B5B7550E100D0D9EB32F96973F0C2AF'
p459
S'287D4324E3389C5B97DE9064DC68F7DD'
p460
sS'D8A079AFE5C205F8C829CF0B99DAAE67'
p461
S'287D4324E3389C5B97DE9064DC68F7DD'
p462
sS'FCD32B43D5180DFA1388147AB8017ABB'
p463
S'2785B58949F44DB4922CED5BBEFE8E8F'
p464
sS'F9E88A14D10673374F5A6FD15696B01F'
p465
S'CAF4654D12FB028EAAC1AAE849D1CE5D'
p466
sS'0115A40EDEF2E0911D6100952E8D4510'
p467
S'78FE1470A5561158D41AEA2C69A3B70D'
p468
sS'6A181114A2D13FE01A2144A5542D2D1B'
p469
S'287D4324E3389C5B97DE9064DC68F7DD'
p470
sS'EB996A1E7B704AFDD45C81176051E8B4'
p471
S'120553F6C8075F707B716ABE775136CB'
p472
sS'B87DFB48FBEACFEAB3534B7D4C80FA3F'
p473
S'410571D01FCB681CF6378CB9E8B97D50'
p474
sS'2AA02F461DD054A4BC3D467F39252B5B'
p475
S'CB16F617795455CB77F269513D9A2652'
p476
sS'225F3FD393AD694D2AE3AF93E6914B20'
p477
S'720C1637EC413AA781A963C1E5C4663E'
p478
sS'FAECD506A14452AD850CF11EF40EC51A'
p479
S'720C1637EC413AA781A963C1E5C4663E'
p480
sS'34D47C5242938DE5547D9655532CE830'
p481
S'720C1637EC413AA781A963C1E5C4663E'
p482
sS'3EF5610D0A5E8F17B7407D9F0111EDA1'
p483
S'720C1637EC413AA781A963C1E5C4663E'
p484
sS'515FF479FB33530A7D4425B6363DEAF5'
p485
S'287D4324E3389C5B97DE9064DC68F7DD'
p486
sS'8E0F4813D634B09ADEC14B61C260B6CB'
p487
S'842D0FD27BA2B5F3C734B422A9ED60F3'
p488
sS'8A85D754F54DA5D5482FBC83B3F6A1D1'
p489
S'287D4324E3389C5B97DE9064DC68F7DD'
p490
sS'D7B79300B7C458E62469C4C8AB8A8367'
p491
S'287D4324E3389C5B97DE9064DC68F7DD'
p492
sS'9F2BDC2500B670F367DDC8BFBCAAD7D7'
p493
S'287D4324E3389C5B97DE9064DC68F7DD'
p494
sS'1DB12313CA122D5DD730F288E71B9E23'
p495
S'542320D1C34A9AA5726A1BC2B8C0CFEC'
p496
sS'D76946B22B6C04129DDF460B961E4EFB'
p497
S'720C1637EC413AA781A963C1E5C4663E'
p498
sS'FA98CC42A5E562FE62C80B1375D96119'
p499
S'287D4324E3389C5B97DE9064DC68F7DD'
p500
sS'06C14073D971A1F97230EDD0DE693F64'
p501
S'CB2175964A64E1AB02431FFE840FAD8D'
p502
sS'1280DFDF7C0D1C1B322E5D1F7A77A498'
p503
S'FDDA9CDA844CA702717272ABED645FB2'
p504
sS'DB48FFA3FB4CC9EF6A398FCBAA725FB1'
p505
S'287D4324E3389C5B97DE9064DC68F7DD'
p506
sS'B5EE4107E81A073D32777A0A9A3AE6D3'
p507
S'2D08B84546AC3A5EAF60A473AF9E04ED'
p508
sS'1409A7E2BFC2093908C62A8480EC31C9'
p509
S'720C1637EC413AA781A963C1E5C4663E'
p510
sS'735D07182F4703922CD41620FFBC19F3'
p511
S'511A5F6B3CAF36B6ECCD935926F374C6'
p512
sS'59682F6D47BF23CAA710720382CED538'
p513
S'720C1637EC413AA781A963C1E5C4663E'
p514
sS'34B5D3A4A1DE84DF8AB1F0BFD2B4F2BB'
p515
S'5D8D5DBBF6B7AD553A60F7491E34B34E'
p516
sS'7071BEDB8EE4CEE8755298E6646D7791'
p517
S'26CFEACE140D70D0ACF2DC45AAEA73A1'
p518
sS'C62F45B6840F67D1BE373B70EF30B9CB'
p519
S'720C1637EC413AA781A963C1E5C4663E'
p520
sS'CC2C3108E28B72BCEDD9DF79B37C33DC'
p521
S'287D4324E3389C5B97DE9064DC68F7DD'
p522
sS'1206CDEAA06B5906BAD767B9400EC25A'
p523
S'720C1637EC413AA781A963C1E5C4663E'
p524
sS'9DB2E1307267EB2279ED5CC6D87D0FC3'
p525
S'74CD99F821C404E3E21F248D149F8C45'
p526
sS'81CEF57B3AA93A3B4B9EE378BCDEAB7D'
p527
S'287D4324E3389C5B97DE9064DC68F7DD'
p528
sS'7B83E96D7CA5DCE303D2EBFB81BD5BD4'
p529
S'287D4324E3389C5B97DE9064DC68F7DD'
p530
sS'D55E1EFA7F3717352A32DF931A26E355'
p531
S'A0AA70E78ED6C4DB9BB2FA8B98BD1F47'
p532
sS'0B3AF25E01746B8D542BFBD27B18EA30'
p533
S'A40F80C44020A69168BBB17425091160'
p534
sS'FD50D901BB9905327CF13AF2297243CA'
p535
S'27F0CC99919176F688AC8A66DC85FC66'
p536
s.