(dp0
S'7E7C94848F0FD2276421AD174F9B0AD2'
p1
S'DFC33B4DBE0D1FA50ECA3C436641C00F'
p2
sS'765614070C71FBEC1B73DA8B4493B121'
p3
S'720C1637EC413AA781A963C1E5C4663E'
p4
sS'03D5D5C90C747A992333537EB67D582B'
p5
S'888A42D498F2F402003B2BC2890F7938'
p6
sS'848268537925F16F1E31AB5F6E1B8EA9'
p7
S'F5CC0326C6E78A1E94856ABD6D5642EF'
p8
sS'42D9344A1863F0923C1D5263FACFD667'
p9
S'287D4324E3389C5B97DE9064DC68F7DD'
p10
sS'45BC3FBF06A5E239B9E33373A74751E2'
p11
S'720C1637EC413AA781A963C1E5C4663E'
p12
sS'D642817BBE1405B8C53806BECEC2A5C1'
p13
S'7EC9B0A4203C4400E89B95740DA9BF50'
p14
sS'8D364B0D1F50B7EDF6A8A0D998B05583'
p15
S'720C1637EC413AA781A963C1E5C4663E'
p16
sS'12245B10F4726973FF80406C88D31033'
p17
S'287D4324E3389C5B97DE9064DC68F7DD'
p18
sS'B065F38F64400894F72CD9B8362C6830'
p19
S'31D86AA4198D0C7F4F2C0FC25D844DE3'
p20
sS'99D7B7D4C797BA29198A92F62920447A'
p21
S'287D4324E3389C5B97DE9064DC68F7DD'
p22
sS'980C385628ECD245109DD62E23F23BAC'
p23
S'30A967E5040CACAB21D9819CD571A249'
p24
sS'AEBEC9DC1628F48D6196373966E28E78'
p25
S'CBD7A0119F9030C5EBA9FAE7C711EC1D'
p26
sS'FDF427ADA1EC4FD91AA790476ADAD2AE'
p27
S'53F3CD58783931E48BC84384FE54CC1D'
p28
sS'71FFD2187BCF6965A32583CA2930D3F7'
p29
S'B7D5DDE0B2FC1CB1FAFDDA256CF096B6'
p30
sS'139A3A2EF82B52C5A593257B9D0B2C10'
p31
S'ECDF8D4AC38D720E5C6CF4426D7CD5AE'
p32
sS'B86DD4BAAFFEED3C6FA3A07558A5AAEB'
p33
S'F654F7CAA479913495E9B07FC3507880'
p34
sS'4DA00ACFAF26D6C38A46918F9B508043'
p35
S'720C1637EC413AA781A963C1E5C4663E'
p36
sS'88BD6F14FB32388DC1F04ECBB87EB67A'
p37
S'287D4324E3389C5B97DE9064DC68F7DD'
p38
sS'19E7E6844967DDDE982F9516BA33677D'
p39
S'287D4324E3389C5B97DE9064DC68F7DD'
p40
sS'14E0E8001876330C4AA4F4ED0F0CF6F4'
p41
S'287D4324E3389C5B97DE9064DC68F7DD'
p42
sS'FBEA457C0ABE6389752BFBF42C328C56'
p43
S'287D4324E3389C5B97DE9064DC68F7DD'
p44
sS'3621A835D5AC253DEDBC0363C406D5C3'
p45
S'9C281E30F56FE27B96C8B6B8EF2B7E45'
p46
sS'D55377AA10686F2986EBD28F35E662DE'
p47
S'548B8D7A4382CDF58ED005BE75B31157'
p48
sS'C18E3AFB30303B8D38BEE9DCCA8BB7F2'
p49
S'16A9EBF2BB041356521C1FD5631586B2'
p50
sS'8A53168885BF46DD968F980268367671'
p51
S'055AE11EFDD240C071963BB44D6BE923'
p52
sS'1930C3C646154F08A071395598445E37'
p53
S'0B08AC842CEBDFF27A7F350AD37348F7'
p54
sS'153C4412DE427049811F4021D586DD5E'
p55
S'4C1566AF54FA217ED1A004BBB606BE64'
p56
sS'5647C21133E21808B35430C71ECFFBEE'
p57
S'720C1637EC413AA781A963C1E5C4663E'
p58
sS'78E55F06EB26CBC03A459B3C55678245'
p59
S'BDD811ADB584DF6BC69B58EE4246DAFC'
p60
sS'2B56EAB73BDE598F17E82DC1566D886A'
p61
S'720C1637EC413AA781A963C1E5C4663E'
p62
sS'840BA3868FFD6B68F8B21C027F64E38A'
p63
S'1E4BBCEE1A524D60359A90152A2C3C19'
p64
sS'6FA0F169E5FED863425BCEE52A987751'
p65
S'720C1637EC413AA781A963C1E5C4663E'
p66
sS'9795DC2CADBBE6214B3BC9A80AAF3546'
p67
S'53DD27EB528BDD162F2F67B69813AB6B'
p68
sS'26A64B7FC1915CF5D979F864866A004C'
p69
S'720C1637EC413AA781A963C1E5C4663E'
p70
sS'2141F450425331645B970298F031B660'
p71
S'62D62BAD4AF1FADB8F7057CFE95F5AAA'
p72
sS'DECE904DC4294EC10735EAB92C8CA49E'
p73
S'44E207C6DEA90F882C4F4EF28BF04E10'
p74
sS'49B9DA61487F5A1E2A030C77B7E5A4DE'
p75
S'D4335737345B45025620141BE5874C9C'
p76
sS'0D0B138A3AE39E80DD6931F32153AAEC'
p77
S'349BF81233EDFFCE3154882778466F62'
p78
sS'B07121CE6374409B834814FDADAD8610'
p79
S'FB47AB36AA119D6DB6224B718B49B28C'
p80
sS'2197579F97E46D6E64F0C25062AAE135'
p81
S'943AAE5D682FDD8EF8C8E55CE056BD7D'
p82
sS'3307B3E8A196EF771EFA00852AA4DA8E'
p83
S'C5478558E9C316C9285E0ADE259B1E6C'
p84
sS'BF6A0477BF2AC0E6A56DE565EA7B9F24'
p85
S'287D4324E3389C5B97DE9064DC68F7DD'
p86
sS'1A29E66CA3E2660EB6FD32F667E79325'
p87
S'5E256BFD8193AB62817340274B3D9851'
p88
sS'31D13ACB48709C036D47265A928F9224'
p89
S'287D4324E3389C5B97DE9064DC68F7DD'
p90
sS'6F62F124D14881EB50AFA15DE235363A'
p91
S'720C1637EC413AA781A963C1E5C4663E'
p92
sS'19FFB9ED5588E53CA05E6BE74750976E'
p93
S'287D4324E3389C5B97DE9064DC68F7DD'
p94
sS'6579B7C97F8B1957A120985C5480713C'
p95
S'287D4324E3389C5B97DE9064DC68F7DD'
p96
sS'E70DE84182BF98B23A8996B3D1D7E9A6'
p97
S'29ED5AB661E08CA776E51B55ACA569C8'
p98
sS'CBBAC1C78E926819EDCF65F930BA9B81'
p99
S'3D0AAF4731F0FA3B222EB984113E53BF'
p100
sS'B8204AB5D9A053D21661D2DD479A057B'
p101
S'287D4324E3389C5B97DE9064DC68F7DD'
p102
sS'CFF41F4AA40172D6161389436D9B2A4B'
p103
S'36CEF4615154B689B7841DB9FC3DAAD7'
p104
sS'DE2A80FFAFEFC41320A614752DA8D859'
p105
S'346078D7C2E6829493C439E06096DDF5'
p106
sS'161DFF29ACEF54B6F8A3954014C6F0FD'
p107
S'ACF45F3676EEA186F93C709EC58BAAF2'
p108
sS'0F5FBAD54F9095FA024EF3FA438E16A5'
p109
S'287D4324E3389C5B97DE9064DC68F7DD'
p110
sS'32676036A925A3BEB3A888B0CC55D722'
p111
S'649B2857AF6562CC249CF61A1068BB48'
p112
sS'CC9F6E73EDD7115E43D3A874D57DD812'
p113
S'19D6ABB5B8F57847C32C9196333FAC0E'
p114
sS'0C6A1E3D74B4A51047FCB0E1EDA377A2'
p115
S'287D4324E3389C5B97DE9064DC68F7DD'
p116
sS'32FDC78C4A0D4DD8E0C658396DEF29FD'
p117
S'4DFF8043B9B673F8DBF04CA2BB2D3BCC'
p118
sS'8E87A52C14801BB42D7C7E896017A462'
p119
S'287D4324E3389C5B97DE9064DC68F7DD'
p120
sS'98CFBC41EB97920A9A8602AD28778F09'
p121
S'287D4324E3389C5B97DE9064DC68F7DD'
p122
sS'484920642788D20BDF7944220123CC62'
p123
S'287D4324E3389C5B97DE9064DC68F7DD'
p124
sS'D66EA4658AAC38C6FA1ECDB8D1BA73D1'
p125
S'720C1637EC413AA781A963C1E5C4663E'
p126
sS'1DDB017C7BAED2376AB9FE5945FA2FDC'
p127
S'287D4324E3389C5B97DE9064DC68F7DD'
p128
sS'04D1322916D198A878ACC22BE6174AD3'
p129
S'287D4324E3389C5B97DE9064DC68F7DD'
p130
sS'CC657E55CEA6DE7ABD48502A30B340BD'
p131
S'287D4324E3389C5B97DE9064DC68F7DD'
p132
sS'E63603E40D075556AF5B0E5F80B7D450'
p133
S'720C1637EC413AA781A963C1E5C4663E'
p134
sS'F7A987A933C8F211134F8378E7650475'
p135
S'720C1637EC413AA781A963C1E5C4663E'
p136
sS'C08E6086EF32D2BCE49251131E2E3035'
p137
S'E0242CAA4F21FC854438702E8CC96ACD'
p138
sS'489C30697DFB9A1F5D3324DDF7EDFD67'
p139
S'A30E83EB57E3A9194737BD967C7869BD'
p140
sS'C2B67325BE51E97E7A93AEDBB55E6640'
p141
S'720C1637EC413AA781A963C1E5C4663E'
p142
sS'8364C17540DB1976784ABAF0CB3CD591'
p143
S'720C1637EC413AA781A963C1E5C4663E'
p144
sS'BF9813B1A588E0DEA68DE24EDF1ECD59'
p145
S'720C1637EC413AA781A963C1E5C4663E'
p146
sS'34783189D98A4873F3757A255DF02BD5'
p147
S'91CB068F80B52C97445AC7080FE05637'
p148
sS'702FDEB2A7E338CE8DF91B5226951DD2'
p149
S'8D96E7DCD51732DB4141AB8130B19C79'
p150
sS'A51D2315885EB2D9975A54B9AA5821AB'
p151
S'A9D049C1D28986115B97FA53F780B7AF'
p152
sS'938E7CCCEDA85449F147068F12288E02'
p153
S'287D4324E3389C5B97DE9064DC68F7DD'
p154
sS'EAB0822257BEF348148429D28622D6AE'
p155
S'720C1637EC413AA781A963C1E5C4663E'
p156
sS'4AE37B2ED364C14218806F5977360AA4'
p157
S'3F5847E26F87ED21272485F0403704B5'
p158
sS'4F8D153C228F01A160CF80F1750E85CF'
p159
S'A10F03C38EAC7FA4E33C36F62B400171'
p160
sS'D4C66CAA7195AB319CBDAE5092A39C95'
p161
S'287D4324E3389C5B97DE9064DC68F7DD'
p162
sS'F9EE9A5E839884B74B2C7E658C33A241'
p163
S'8F0053C5DB2BFFF158132DCBCD8536C2'
p164
sS'C9CDC20878180036ED29A3484F11CC46'
p165
S'0276F5BA9BC37ADCAC54A9C4D8141C74'
p166
sS'C8A3013304E8E16D8CE7754C635DFC00'
p167
S'287D4324E3389C5B97DE9064DC68F7DD'
p168
sS'5830CDBE2BA7BAFE5755F3A48953A0DF'
p169
S'DCE035FAE518CD7A173C5F91C99BF020'
p170
sS'949D0AC40B63B65964E157DAA878EF88'
p171
S'287D4324E3389C5B97DE9064DC68F7DD'
p172
sS'FA22D0BCE30C4E38B524948DEE242EC9'
p173
S'7C36498F9CDC065D1C8B6ABBA24AEDF0'
p174
sS'AE2CD1B8570CE1F8B9193A1A0A3A6649'
p175
S'720C1637EC413AA781A963C1E5C4663E'
p176
sS'D747CC2D278A2332D6BB0767C4F971FC'
p177
S'AD0758C64F20C910B6AB10F9D4474582'
p178
sS'46233D56D30321F861ACD92B15D952EE'
p179
S'287D4324E3389C5B97DE9064DC68F7DD'
p180
sS'B0DE5F42CED15D933EFC2DF86B930EF1'
p181
S'720C1637EC413AA781A963C1E5C4663E'
p182
sS'B3E45603996447717D79AFEB68C53DC5'
p183
S'287D4324E3389C5B97DE9064DC68F7DD'
p184
sS'EF33CE46A98B134AE1E9CA31693D7FD9'
p185
S'287D4324E3389C5B97DE9064DC68F7DD'
p186
sS'58933B39DA7D7B087F7FBBCE24D70170'
p187
S'287D4324E3389C5B97DE9064DC68F7DD'
p188
sS'9804AADA964C3EF8DCD67C99EE4FA0C4'
p189
S'720C1637EC413AA781A963C1E5C4663E'
p190
sS'68A80048F94FB36E0A0521C8B4FFF573'
p191
S'720C1637EC413AA781A963C1E5C4663E'
p192
sS'7825C4E2B5E40EAE0EC2C6B0F95CE439'
p193
S'720C1637EC413AA781A963C1E5C4663E'
p194
sS'27BA347F9FED20842C2E0C7B09F7B641'
p195
S'AF034FE8DCA7E5147DAAA26E3918BE6D'
p196
sS'1104413B4A35F228843B9EE0080AA873'
p197
S'C071EB676FB8F14A6A2C6722C7167FEC'
p198
sS'D967BF5223C220E02F6BC423B6CF9D86'
p199
S'720C1637EC413AA781A963C1E5C4663E'
p200
sS'2D79792E925788AC0D14E45D8F877648'
p201
S'720C1637EC413AA781A963C1E5C4663E'
p202
sS'A8FF799D12DB9FF39A09D0FE2BED0FC9'
p203
S'720C1637EC413AA781A963C1E5C4663E'
p204
sS'17D1ACD12D141611F07EFD13F2C1BDED'
p205
S'9E0E9FADF5132309DFF281FC3227B27C'
p206
sS'B4312520EF2D87C229F6C0FEFA218F53'
p207
S'F1F4F379CDA25ACE73490C05270CD7D7'
p208
sS'BCE185AE6DEFAB6E42B9BCE69E92D867'
p209
S'44E207C6DEA90F882C4F4EF28BF04E10'
p210
sS'341FBF03707E4423910D5F362F8285FE'
p211
S'2A3CC3224E83E064BF9BB1C9472C613D'
p212
sS'A731A309E4047481CF472408C61ED7C6'
p213
S'842D0FD27BA2B5F3C734B422A9ED60F3'
p214
sS'784F2DF5CB87695403BD11C93DA0E22E'
p215
S'287D4324E3389C5B97DE9064DC68F7DD'
p216
sS'FC74D2ACCAC26125A01A283E4A7C8756'
p217
S'287D4324E3389C5B97DE9064DC68F7DD'
p218
sS'3282DE4FDACD13A3A50CF66BB31B7114'
p219
S'B5822C66664ADBE4E267FC2DFEF36491'
p220
sS'B529AAA978881BC3BCF6C24E617C9C94'
p221
S'55B0F20B3336C789F79093A45301ADD5'
p222
sS'1DB67494C08CCD2240352EC32FE7A862'
p223
S'FA900023E1D7CAFEC049E63E6072A79E'
p224
sS'BB7D6F5B6F1FB888ED1B15D86830B1E7'
p225
S'F880891B2AFC717CEF8CFF93F8BB206E'
p226
sS'5A0E64EBEE6CC29E2CA014AAC2264EF0'
p227
S'09AD154CD439820A51BA23C01617C96D'
p228
sS'8FD4CB8D9AC6A48C6C1EECB0DB59B215'
p229
S'720C1637EC413AA781A963C1E5C4663E'
p230
sS'9DA72957619F87656735D4B464F63E9F'
p231
S'44E207C6DEA90F882C4F4EF28BF04E10'
p232
sS'723981DBDA11F6BC640B8DC4706A5B8D'
p233
S'720C1637EC413AA781A963C1E5C4663E'
p234
sS'CF142BCA6D9125675D3FDEA86B17A41B'
p235
S'287D4324E3389C5B97DE9064DC68F7DD'
p236
sS'DB76EE5569AE3417DAC4089D91B9273F'
p237
S'B8F690D022F3318BAC60105E12971B8B'
p238
sS'FCFFD3046F1EE69DF82B53DACA9D43C1'
p239
S'80C5DFAB93EC140B2FEEF53749DB77ED'
p240
sS'4C86CB29D9E5EEFBF92825A465E2004B'
p241
S'50147B5F829833949E1D5DA97BB81A22'
p242
sS'AE6DE159100461E91219B3CF6E2080E5'
p243
S'A40F80C44020A69168BBB17425091160'
p244
sS'A20D645797D0DEB1287CAE84D41934B2'
p245
S'287D4324E3389C5B97DE9064DC68F7DD'
p246
sS'3F3EA570CB39FE5BE1212AF2625D042F'
p247
S'287D4324E3389C5B97DE9064DC68F7DD'
p248
sS'2EF1DF6FC612E1ADE196370FCD20B770'
p249
S'287D4324E3389C5B97DE9064DC68F7DD'
p250
sS'9B64868F43ED8D54C6FC8D41EBC613F0'
p251
S'575E8D57477099CD8C317AD410BEDDF2'
p252
sS'D16A8D28487D0C44A5C014E0A6450217'
p253
S'50FB34C124DB4B44BBD9DD6DDD80822B'
p254
sS'4B0D3919F90C3E210F9B3792E240F822'
p255
S'EE211B7C3CBABC0BE6D7811702DD5D6C'
p256
sS'BBEC91E794C31CF20A461E184016CDC9'
p257
S'287D4324E3389C5B97DE9064DC68F7DD'
p258
sS'9601BE9E3BBD471F61B7B4AE8F406DE1'
p259
S'3FD4A9E3E3108CB14507E76EB7E74CF8'
p260
sS'4DA0E84C0F16E0407A5D0DE1FB76910A'
p261
S'8FC3E0118F9A947E4D6A649CC81360CE'
p262
sS'B1DC7D2F4E8E3EBD3FDFB641D19EA0FE'
p263
S'287D4324E3389C5B97DE9064DC68F7DD'
p264
sS'ECED51BDC1819283319D29FE1EF7CC10'
p265
S'720C1637EC413AA781A963C1E5C4663E'
p266
sS'DBB6B004F4A37D5DC3D8D0E60EA67C5A'
p267
S'92E1E9EF012FEF290833183536314BC7'
p268
sS'BEAF1A36A254836ECC6946764DC9D89B'
p269
S'FCBCB1D8DE245A11A72F1B76719CB46B'
p270
sS'5AF46086DFED297374983E3F1000DDD0'
p271
S'EBE8A8343C0A127F8A9D0B5778BC7A83'
p272
sS'B364AC9A61A8635FA795578660836188'
p273
S'287D4324E3389C5B97DE9064DC68F7DD'
p274
sS'8E8E834F21725211282186C1B0FB95A0'
p275
S'287D4324E3389C5B97DE9064DC68F7DD'
p276
sS'432370DE3C05AB9D0FA7E6B0A3B9F8BA'
p277
S'35E41A091779F077C8C2B3EFA5619F2E'
p278
sS'3669D3C541ED477C39F0E51B40332E2F'
p279
S'6FD1EDD5A157627929DFBE0CD90D754E'
p280
sS'107D8C65BBF29A9881E74B4C0DC10369'
p281
S'287D4324E3389C5B97DE9064DC68F7DD'
p282
sS'160A0303C8266B0FC5C59B0C07EE2EC0'
p283
S'287D4324E3389C5B97DE9064DC68F7DD'
p284
sS'3D049B27426BCDB82C1135C2BA69B5D1'
p285
S'720C1637EC413AA781A963C1E5C4663E'
p286
sS'BB9FEB65BF004EA8738455CE00D4D545'
p287
S'36D57F8E278235D18BBB13ECE7A33FB1'
p288
sS'09ED9E30057C5FDAED99AF1BA237F7A3'
p289
S'D6D47D9484795143943984DB6457499B'
p290
sS'21357321C8C59041BBD3BC984850D020'
p291
S'287D4324E3389C5B97DE9064DC68F7DD'
p292
sS'79DD00CC97FE615B98A2C86AD3FD1A27'
p293
S'352D373C4C38EAEF5C2B9C79B9C33459'
p294
sS'6C9D888DCAC81A4C4E8F4C49DAAD3280'
p295
S'720C1637EC413AA781A963C1E5C4663E'
p296
sS'0DCD2F487C7AFF7D0149F9BDE3325C21'
p297
S'720C1637EC413AA781A963C1E5C4663E'
p298
sS'0218E13B0E665998C604DE60AD385B3F'
p299
S'17B25C8F01C982BD8F871E32B4521868'
p300
sS'25BA87024A2EAD6A560A736E8C9E09C3'
p301
S'352D373C4C38EAEF5C2B9C79B9C33459'
p302
sS'E13C13CB524B124F578296A07DCBC90E'
p303
S'2C559AC7B6AD67379A193564695CF5B2'
p304
sS'069B7BF83773F56680A29B406EE4F3E2'
p305
S'287D4324E3389C5B97DE9064DC68F7DD'
p306
sS'88D2201A9112756910C76C400144B8E3'
p307
S'EE4FF262BF57C418746D7E2F423B58CC'
p308
sS'5723C030EDE7BBE5F856A39A77F9D102'
p309
S'287D4324E3389C5B97DE9064DC68F7DD'
p310
sS'0DB2A733D2020A3A265AFDDF9D03482B'
p311
S'720C1637EC413AA781A963C1E5C4663E'
p312
sS'AEF37D6EDC3DEC5DB224BD302672E68D'
p313
S'4E337841E04233A012374252DA2A6C3C'
p314
sS'AAAC3382AF511CD8F19EBB395DD1ED3F'
p315
S'720C1637EC413AA781A963C1E5C4663E'
p316
sS'6449A7C0EC8389C28036546E10A324E9'
p317
S'720C1637EC413AA781A963C1E5C4663E'
p318
sS'7F10A74FFEF55A69D60A0FE9D013CF2E'
p319
S'8D79FB18F7265F1B79E640AB9C72CAF2'
p320
sS'725E32F195DA9557C90920BD2C8F413A'
p321
S'30DE178459FC0D3EC081BE4C28014B94'
p322
sS'4BA21E0857FFD77174FDA8EE66486576'
p323
S'4512E6094A667FE37C5B92894FB21D74'
p324
sS'D13F1B4B444600330FB81A656D4EAC42'
p325
S'287D4324E3389C5B97DE9064DC68F7DD'
p326
sS'6FB0A8FF9EF598538D37230DADE95EF7'
p327
S'287D4324E3389C5B97DE9064DC68F7DD'
p328
sS'318A5FE8CFCF5D68507A5CABC209687F'
p329
S'72DB5D270C769253DC567293C0496C8A'
p330
sS'D160768307A6B0DD66C24F93705CAA74'
p331
S'5575F38D93F4B2A85610A9AEB2F2E8A2'
p332
sS'0770F5B6F68FD475754D059F21BF0F77'
p333
S'4CA1A0DCB02E717E4979F047459313DA'
p334
sS'F4C37F1B0D77B00B3CBBEFD57511C670'
p335
S'B1D294796884A58F3C4AEE0C155B788E'
p336
sS'58A5ED627FDAAB810EC4D60C0BCAA7FB'
p337
S'44E207C6DEA90F882C4F4EF28BF04E10'
p338
sS'B043D6813B78D29CD5D19228569AE674'
p339
S'720C1637EC413AA781A963C1E5C4663E'
p340
sS'5FF2718279AC95BCC3B7689C470F9E87'
p341
S'E72BE085987AD1FF30B7497451CA6FBC'
p342
sS'469B85B7916A22B9880C18C25A6DA279'
p343
S'3CE7A429D55439AB85D1913466AF2795'
p344
sS'F0F8E1C8BD2DF6FE2AE25D27A8F16B6A'
p345
S'720C1637EC413AA781A963C1E5C4663E'
p346
sS'863CA44FD74B85A7CF98778715E9AFB1'
p347
S'923202B1D7EEAA98E7BB4AA435B10964'
p348
sS'6EFAC7641C695250613A7FC12931A7A6'
p349
S'87386BE49E61A60DA13195C456C72679'
p350
sS'4C3A7E8F7EAA2EA7245FFB9F2038796C'
p351
S'CB2175964A64E1AB02431FFE840FAD8D'
p352
sS'5201ECDACABB4DD9A744DF3BE86E5833'
p353
S'25C2098427FCDB0F41E2338D6298C5A6'
p354
sS'FABAC87C042E5063BEC5F3C76099D4D4'
p355
S'F989C6AE8A80C5274AE7C54A0E50FB48'
p356
sS'CE69516E3F68CF6F8D1AF3A812AD6B4A'
p357
S'7DF6F4E7864D33AD27DDE08B9B7B33FB'
p358
sS'E9A5857F22E566608A305C09000DE38F'
p359
S'F3CE14614481D1E12B02D3B1A9401577'
p360
sS'E7B4C390A511D1D4E3C9B25366F3DCB7'
p361
S'287D4324E3389C5B97DE9064DC68F7DD'
p362
sS'F14B772DF482C2ADF7CA78B9B687F261'
p363
S'0DE2A8F8A8DA33317E0E106A1B09006D'
p364
sS'56A4DFB259BAD7D83043DF89094BC239'
p365
S'75C6C33B177E47F7816E8EB8CBCF6270'
p366
sS'4FE443F2E97C9D2F29357FA76217D73C'
p367
S'720C1637EC413AA781A963C1E5C4663E'
p368
sS'BCD656BA3E85AFA78876C0155AD00E1D'
p369
S'287D4324E3389C5B97DE9064DC68F7DD'
p370
sS'7A74A4FFC96850421FE4E7F988ED0776'
p371
S'AE0A0045E3691571CF5B5A555B9F60F0'
p372
sS'3E1056A55BBD524DDDDBD355191FBA62'
p373
S'287D4324E3389C5B97DE9064DC68F7DD'
p374
sS'615A5AA6A8E190B3267002188296A190'
p375
S'A2EB88E317A9DD5D50869CFB77B2209C'
p376
sS'2BD69B4953855C0C47CAAEDB0B2F1AAA'
p377
S'287D4324E3389C5B97DE9064DC68F7DD'
p378
sS'9D2C2FFD7A0BD1B795B22092B6CFB2B9'
p379
S'FC07ADE225CAEE270CB6BC9AD096D0E8'
p380
sS'1AE0CA41D48F2B3A08730A4B96C498BB'
p381
S'2BCEBD1E7D3367927EBD42067E54CAD7'
p382
sS'C10D4278799A346F4CEC567D73051DD2'
p383
S'8CC63D066D77FA50BB66E77939B2AC30'
p384
sS'1D8C40FE32845CCD451DC5E4CE6E469D'
p385
S'287D4324E3389C5B97DE9064DC68F7DD'
p386
sS'857DCBA1B17855D0CDAAC6637F050258'
p387
S'DC35254A03E43A80DD339089CC3A1996'
p388
sS'2480D989DD2988452F84D5A8F1988A54'
p389
S'287D4324E3389C5B97DE9064DC68F7DD'
p390
sS'7951BF20D240212583417A39924F0E5A'
p391
S'287D4324E3389C5B97DE9064DC68F7DD'
p392
sS'B1D564EF00F37425FBF303198B52D5E2'
p393
S'923202B1D7EEAA98E7BB4AA435B10964'
p394
sS'8493208F4EEE461D72BC25A04A1F951B'
p395
S'287D4324E3389C5B97DE9064DC68F7DD'
p396
sS'C366D54544E8C16301170E9C00100B2E'
p397
S'287D4324E3389C5B97DE9064DC68F7DD'
p398
sS'047C123C3FA977E0E3FF77B88B3A2863'
p399
S'720C1637EC413AA781A963C1E5C4663E'
p400
sS'5D793E55BC5316B83DE69CBFDFC0903E'
p401
S'CA19A377661E7858D6DD376BEECF09AD'
p402
sS'53CC68FE66ED0907300878A7531AE3E6'
p403
S'287D4324E3389C5B97DE9064DC68F7DD'
p404
sS'0F0EC6962FCED6C083F38E3445C9C222'
p405
S'720C1637EC413AA781A963C1E5C4663E'
p406
sS'59AD6E93D3FBEBA3C50FEF277D05F5FF'
p407
S'720C1637EC413AA781A963C1E5C4663E'
p408
sS'76C2FF04D3AA0B16FF13DBCD6C2B6BD6'
p409
S'720C1637EC413AA781A963C1E5C4663E'
p410
sS'53E3977D783CE021C9C4A5B2B420B6F8'
p411
S'2FF075ED2A68D4CE9FF6ECBA042E9D8F'
p412
sS'FD02AEE0B213D4F4BE945075F2A23812'
p413
S'2EBD6FE32F911ABAFC95CA387DB1C3C1'
p414
sS'7FBE8D1FF40B4C88A949F3E2F07F3B21'
p415
S'6611BCDEDAA10DA1FD5B54959683F60F'
p416
sS'B453DD8815EAE70F9E47BD95B6388CB6'
p417
S'6D317271ECA6C24C01F137F2E74EBA7C'
p418
sS'4C1ECBC71EF94A348B2FD4ED7C805880'
p419
S'2E76EA85D31BDD02796044816BD346EF'
p420
sS'A2CB75861022D1FF2C37146F93821BF4'
p421
S'720C1637EC413AA781A963C1E5C4663E'
p422
sS'CE5BCEE83B121ABD5F1A85CD8CBE62A2'
p423
S'720C1637EC413AA781A963C1E5C4663E'
p424
sS'3975E8362DF32AC3BBC25E6F519B20D9'
p425
S'175D90B9D8B078EFEE0BBAC4E9EDD57F'
p426
sS'CE151F4004049FE09A472D541791EC94'
p427
S'AC656DB9EF564551D3AB96C04C204063'
p428
sS'98653CA5E5E5D8B669282F6595322361'
p429
S'50D16A0C729788AA9A4AA6E53EE627F8'
p430
sS'1FE04498E13B414DFBC6CE0A8B51AA45'
p431
S'287D4324E3389C5B97DE9064DC68F7DD'
p432
sS'6BD05ED3D5A40A2C4C07F961C65DAA2C'
p433
S'287D4324E3389C5B97DE9064DC68F7DD'
p434
sS'23F798BC82FAA471D3DC617B00C3077A'
p435
S'C89203EE98C18F88536B220CAF915266'
p436
sS'55EF7AAC399D5BB349AEC16D596829ED'
p437
S'287D4324E3389C5B97DE9064DC68F7DD'
p438
sS'FA25037309BF1B592FA3088A33819B46'
p439
S'287D4324E3389C5B97DE9064DC68F7DD'
p440
sS'82AA53BA61D3A127CDA467D86A758E76'
p441
S'287D4324E3389C5B97DE9064DC68F7DD'
p442
sS'17E3AFCAE296E6B178A65DDA8DAF2E16'
p443
S'2E3F7626D8893D2E8E279D6D5055FD8B'
p444
sS'210603A6305A3D72CA0AD3411632BA04'
p445
S'720C1637EC413AA781A963C1E5C4663E'
p446
sS'23E1CEFFB8E74D98F59039FE8DC61BA5'
p447
S'720C1637EC413AA781A963C1E5C4663E'
p448
sS'ABD70B27140810BFC433CF3A4987F995'
p449
S'E475E078491EBEDFAFB867676378EC5D'
p450
sS'13225B88A4E145DBE4F8D1561E22D0ED'
p451
S'C0F23BC51D7BA87F48E3F853F4047B41'
p452
sS'47C9B413DF6AD8DEF9FB369AC2C8C8F4'
p453
S'287D4324E3389C5B97DE9064DC68F7DD'
p454
sS'942E28C8CB140710ADDD2DA298EABD45'
p455
S'128E8E7E6B023AA114E803662C755B3A'
p456
sS'9D1AE2A5375F21ACB4A2877CF280664B'
p457
S'3723F3D81004F384C7A83CA4221D03B5'
p458
sS'5C6C8FE8B4969E4F8DE0022392696C15'
p459
S'4462CB5A5B37105289004ACEBAB4C5C6'
p460
sS'B8CC887EB791EFD64D2E91D7D5F61AE0'
p461
S'923202B1D7EEAA98E7BB4AA435B10964'
p462
sS'E92C8FD36A725BEE45C5DE1567F72683'
p463
S'287D4324E3389C5B97DE9064DC68F7DD'
p464
sS'9B39995B273342E996C9C9FC44E93456'
p465
S'68A2F9945B6278E1B6DDA027262FD651'
p466
sS'B1EB8D952E433C39444C831792C027F2'
p467
S'604CCEB8F37816D4C8459AB29CBB6214'
p468
sS'6D07B24BCC0DD6B5F2DD4C9D5557E812'
p469
S'6326EA7F4B8975511E13991EDD070C07'
p470
sS'890247E92771C626BBF6D04D155BBDCA'
p471
S'DBAB7641FD1733974E9D25CD45A28D09'
p472
sS'37F998910F975189BE6AC11A664158B2'
p473
S'D7EF6F1BD60464D6060E34A20E1ECC9C'
p474
sS'DE70681D3493CB3845BAFC4B4CE75C36'
p475
S'720C1637EC413AA781A963C1E5C4663E'
p476
sS'737E0D0B19BA34CE231018CD77FB3CD0'
p477
S'57CD7ABFB28F9E4D973DC16B9923ABA1'
p478
sS'0149DE0233CDE7EE09250AF2E008E980'
p479
S'97D6E6469BBEB8C92882A35F89420B5E'
p480
sS'81D9D8CDC2FCE0982F25C570309E8657'
p481
S'287D4324E3389C5B97DE9064DC68F7DD'
p482
sS'4EAEB3F456B96823504EC74C63E7D5A9'
p483
S'287D4324E3389C5B97DE9064DC68F7DD'
p484
sS'554137C31EE3003D981171DFD178CAAB'
p485
S'720C1637EC413AA781A963C1E5C4663E'
p486
sS'20170FB5EFDBAAF0DD195676800B3051'
p487
S'287D4324E3389C5B97DE9064DC68F7DD'
p488
sS'1C6B0D679527A81B7D5ED1A6992B472A'
p489
S'720C1637EC413AA781A963C1E5C4663E'
p490
sS'314F0AC6457F2838E13B77F2C8915A27'
p491
S'720C1637EC413AA781A963C1E5C4663E'
p492
sS'C65C60B98911B4051AD61EDC71189615'
p493
S'5E160339A63D7627F523B9987F838AC0'
p494
sS'C1EEDF6077255980DD204E6C68817E44'
p495
S'287D4324E3389C5B97DE9064DC68F7DD'
p496
sS'C5B15784425B1BD97B0311F84176C8AF'
p497
S'E13C908DDE1D8DE74F46DCE222360452'
p498
sS'95B9819B8FC292593B79E37E2DB709FD'
p499
S'287D4324E3389C5B97DE9064DC68F7DD'
p500
sS'6C9A7A8B96ABBBEB5A6FFEA15FF1720A'
p501
S'720C1637EC413AA781A963C1E5C4663E'
p502
sS'6CCCEEE5CD7531C6E87F522F8E910EAD'
p503
S'720C1637EC413AA781A963C1E5C4663E'
p504
sS'3747EA223136F6303C1E9EE75B1C4DCA'
p505
S'7C93F707A1C91E98E628FA188E00CC97'
p506
sS'AE2A610E1DFF91D8F871BDCCB63BD775'
p507
S'287D4324E3389C5B97DE9064DC68F7DD'
p508
sS'FEF252E22AB046298C259730ADC8F1D9'
p509
S'287D4324E3389C5B97DE9064DC68F7DD'
p510
sS'DEBF37C4A4797D8CECE044A865DC0D7E'
p511
S'720C1637EC413AA781A963C1E5C4663E'
p512
sS'693F0962C99AC02DA3CF7DFC39174524'
p513
S'74A1F58A657718CDAC3B501962A45E29'
p514
sS'E6B0683D6CC707D8DB2D346750F06198'
p515
S'720C1637EC413AA781A963C1E5C4663E'
p516
sS'A7410FF27E0A263F25A03EEA30A983D1'
p517
S'287D4324E3389C5B97DE9064DC68F7DD'
p518
sS'583723A4DB48679302081680C907FBEF'
p519
S'4A65461E0738A05F6D591FA273B68183'
p520
sS'4C44A7CA88ABD6A029C556CFBA23CA86'
p521
S'AC6C1AFECFBFA7079AEEC119ED78C2EE'
p522
sS'D5A4A163D416802F1B00B977E881C296'
p523
S'FDDA9CDA844CA702717272ABED645FB2'
p524
sS'7E180030E1B40D77511EAE9651A171D2'
p525
S'287D4324E3389C5B97DE9064DC68F7DD'
p526
sS'F68C7E8F681659A38044028270DFDBF7'
p527
S'90BB3FECF509EBA4A313690A982AA09B'
p528
sS'E2FFB38EE95CA2E9DE2403A97E8F94FC'
p529
S'B87677CF48B2A127876B67CB3BD128B8'
p530
sS'3E558A8FCC57AEFC8CC4035C33F84881'
p531
S'0BC28E1DC754B4914DE04138B1B1C592'
p532
sS'D7F75BE443BA265C4C46F3B2EB300BE0'
p533
S'720C1637EC413AA781A963C1E5C4663E'
p534
sS'96ABF862162D2891D793499CE600AAFA'
p535
S'287D4324E3389C5B97DE9064DC68F7DD'
p536
sS'CED8EEE8F1169CB1CC8ABA789E9D4CED'
p537
S'44E207C6DEA90F882C4F4EF28BF04E10'
p538
sS'C9A9B4E5C61B8C53D7B892E476FDCC45'
p539
S'720C1637EC413AA781A963C1E5C4663E'
p540
sS'57E42F4C24F66D837A76842439B6CE0E'
p541
S'287D4324E3389C5B97DE9064DC68F7DD'
p542
sS'6A3BDA6351CE8733C67FEAAA845BC51D'
p543
S'349BF81233EDFFCE3154882778466F62'
p544
sS'5998D533DC1C6A4A359FE2E4B92B406D'
p545
S'720C1637EC413AA781A963C1E5C4663E'
p546
sS'09B6E8CE1FEEE3215C923C6A233CDDD3'
p547
S'720C1637EC413AA781A963C1E5C4663E'
p548
sS'839882A9A33A3E1C043C36F2DA74FAF0'
p549
S'720C1637EC413AA781A963C1E5C4663E'
p550
sS'E92FDFC2DCDEE3FF3E5E2A4D51259560'
p551
S'287D4324E3389C5B97DE9064DC68F7DD'
p552
sS'F72099E6A05AADED4565A2CD2D2C224D'
p553
S'720C1637EC413AA781A963C1E5C4663E'
p554
sS'BA5C7F1E5A59B7D74DFDF01A2EAB3192'
p555
S'720C1637EC413AA781A963C1E5C4663E'
p556
sS'8BF739111136DC159A23C81417C62F80'
p557
S'287D4324E3389C5B97DE9064DC68F7DD'
p558
sS'16F53885BDFA6E56590926C4472325BA'
p559
S'287D4324E3389C5B97DE9064DC68F7DD'
p560
sS'F3561AA9E10839B96C8732AE6FD06D8B'
p561
S'720C1637EC413AA781A963C1E5C4663E'
p562
sS'AF532FC2D9F6145538C49B2E105FAAB2'
p563
S'287D4324E3389C5B97DE9064DC68F7DD'
p564
sS'28F49F2CE1500866464CBFC9127C5277'
p565
S'0DC803055DA00DCBE18D041B99DE98C2'
p566
sS'9B27F0666EB12954FD431D9C2EB4A3D7'
p567
S'287D4324E3389C5B97DE9064DC68F7DD'
p568
sS'A782F458FF39FF2DC684E4969BAE83DA'
p569
S'E50766473F67A08C923222E04E55CB2E'
p570
sS'0C5580F6F5D67056DE4FE9C54582FA7B'
p571
S'EDAD67A7870137E4AE0CF70581CD160A'
p572
sS'2E4E8B6FDC17B24E1C1CC27339DA87A1'
p573
S'287D4324E3389C5B97DE9064DC68F7DD'
p574
sS'BC4808A9B6EE342AAFD8BB52A97706B3'
p575
S'AC87D3DBC81416CBEED31F9361FC049B'
p576
sS'32735F6D657A8AFD97B3213B849B8639'
p577
S'720C1637EC413AA781A963C1E5C4663E'
p578
sS'CC94F836BF63070EDC1D6E9553177FD5'
p579
S'287D4324E3389C5B97DE9064DC68F7DD'
p580
sS'2B88217A3FD38501ACF158A36AEF0300'
p581
S'720C1637EC413AA781A963C1E5C4663E'
p582
sS'FBEFF5748571CD2B821F2FD852CBDD55'
p583
S'720C1637EC413AA781A963C1E5C4663E'
p584
sS'1CA53CB9E07AA1675EBDC50D3BEC46B6'
p585
S'287D4324E3389C5B97DE9064DC68F7DD'
p586
sS'E26F02E612801262C1E3E6434B1887E5'
p587
S'720C1637EC413AA781A963C1E5C4663E'
p588
sS'D1B19BDDD3F04362410A60F3F5DCEB45'
p589
S'720C1637EC413AA781A963C1E5C4663E'
p590
sS'FC35D72492FB4EC55A09F95BFCD09228'
p591
S'720C1637EC413AA781A963C1E5C4663E'
p592
sS'92D982F7B1FBC45CF1E89E5214EACF00'
p593
S'720C1637EC413AA781A963C1E5C4663E'
p594
sS'094B5EB473294874EF4D89EAA63B5218'
p595
S'45FD7DB3649B55CFDECAAB4BFF068E17'
p596
sS'C2440D66D5941768CB04CF960263B8BA'
p597
S'287D4324E3389C5B97DE9064DC68F7DD'
p598
sS'E701C0C41A89DC4426CC5DA3E66DB9B7'
p599
S'41C6CED78F9CF966FD2C2B6C7A6562FB'
p600
sS'340AD253EF7386272F07848B45E18899'
p601
S'287D4324E3389C5B97DE9064DC68F7DD'
p602
sS'94956795E68BA1F2814B18EEA7F25051'
p603
S'720C1637EC413AA781A963C1E5C4663E'
p604
sS'23B407521085EE692801A62D515003B7'
p605
S'9ED49495FC42499993FF1E81BABFB961'
p606
sS'F99FD1EF6211F2024B03D5585B4454DA'
p607
S'FB7E6C7ECBAA1A5167D200D193A2A28A'
p608
sS'C928EAA3334186FD44FA4FC770A62C66'
p609
S'720C1637EC413AA781A963C1E5C4663E'
p610
sS'F2602B1B552A3C2C727792D06A638010'
p611
S'287D4324E3389C5B97DE9064DC68F7DD'
p612
sS'24122147E0E44BFAA2A88C02A868797E'
p613
S'A5C1448C60B12D2BDD83C7BD3DD3C36B'
p614
sS'525F27666D631B9BCA41BBC34D08BC44'
p615
S'720C1637EC413AA781A963C1E5C4663E'
p616
sS'ED7EE9DE6CFCD7973D5ED10053F7C084'
p617
S'DBAB7641FD1733974E9D25CD45A28D09'
p618
sS'B22B5FC5BB6FB31571063A4A9FBA356D'
p619
S'B79EFD7259D91C7C6CB268E08F428A33'
p620
sS'8AE1F570FC614A212D2A44DAE64386C6'
p621
S'720C1637EC413AA781A963C1E5C4663E'
p622
sS'99E446DDA86066414CE63B5B0AC2BBA1'
p623
S'152A101A0EA89267D352A8569BF481FF'
p624
sS'4A44B1F748E927F130AD2E9B92308A36'
p625
S'720C1637EC413AA781A963C1E5C4663E'
p626
sS'39D735F6E8DB88C32B2C6EC4515C1943'
p627
S'5FA8C50588AA7E2E3401B889AE9EB6D3'
p628
sS'FAA0713BF1A94650F5287E2B4B72C1F8'
p629
S'91EF5AD0F59E7FDF5FFA8E72BADA78D9'
p630
sS'F05FE6AF8DE5D57B27F6D0E673DB385F'
p631
S'720C1637EC413AA781A963C1E5C4663E'
p632
sS'A3800E3F3702E8528414DA76ACA090E1'
p633
S'93DC328072A4CC1D43FEC1233661E059'
p634
sS'FF49AD5A80B0963CA176D54868AE9CDC'
p635
S'367012F8159648C6402A4435B4560BCB'
p636
sS'1218447A7B295D6B4FED72626EB7A4C4'
p637
S'720C1637EC413AA781A963C1E5C4663E'
p638
sS'9BD67E977DA29CA6D9D4765357A43DAA'
p639
S'542320D1C34A9AA5726A1BC2B8C0CFEC'
p640
sS'6F0AA1694AC09B324E97803B296AEC1F'
p641
S'883E4296668F4FDC92718BACBE0A92EC'
p642
sS'8BEADB8552695CD26A6CB0191C632ABB'
p643
S'720C1637EC413AA781A963C1E5C4663E'
p644
sS'CC15A12F8A1081509BFA41818F503DE2'
p645
S'287D4324E3389C5B97DE9064DC68F7DD'
p646
sS'B03418E38BF489FD452A0C739D80BC8A'
p647
S'287D4324E3389C5B97DE9064DC68F7DD'
p648
sS'434E76151DAA36A5C2D51ABB73E163C7'
p649
S'0530C8BDF9D06CF40C3EDE62000E2B5C'
p650
sS'92CB9117BBFA1F10887F841E03AFF0BC'
p651
S'5B1F4C1D2F305437B0CFF3F298FDEFA8'
p652
sS'0115A40EDEF2E0911D6100952E8D4510'
p653
S'418FD4A8607AAC69CEEB39EF5F0A4F56'
p654
sS'0EF08BDE156A346C8036141B7C904965'
p655
S'287D4324E3389C5B97DE9064DC68F7DD'
p656
sS'AE175AC61CA7414C7691997EEA735B4C'
p657
S'287D4324E3389C5B97DE9064DC68F7DD'
p658
sS'E4DCE2A714A607D2DC5928DBADDCCD98'
p659
S'F5557C32335ECE64F7E86DB58FDFB525'
p660
sS'248FEDFF7C79C7A60BDF7455F8A2C474'
p661
S'00A64A0B7D2FAC8370D5C07702B8AE9C'
p662
sS'56ED3D722799372EC03D842431308D9F'
p663
S'44E207C6DEA90F882C4F4EF28BF04E10'
p664
sS'B251A57D3393835244C061C2E38F96A4'
p665
S'4DDB8FC9889FE66630B4FC92431D2ACB'
p666
sS'28EB0A5C1CE699A805425ED11C5A2717'
p667
S'287D4324E3389C5B97DE9064DC68F7DD'
p668
sS'6D35B073776B0A3F1B41EE8A3864E01D'
p669
S'5A0BB14422765904102670189EB7441E'
p670
sS'32081E65C98A46B746591F98BD42B45B'
p671
S'287D4324E3389C5B97DE9064DC68F7DD'
p672
sS'65DDD918E175ECCCA203BDD94968B302'
p673
S'720C1637EC413AA781A963C1E5C4663E'
p674
sS'3B1093D889BE67BF5150E9C683B84FD5'
p675
S'ADBC84E48A179506C328F30046D1DA12'
p676
sS'080CC6632B49B894168A5A0E93B0632C'
p677
S'19D2CE5E97A849196168AFCC4480ACCF'
p678
sS'CFEA47A41C89F7FDA8DE69442470DFB3'
p679
S'287D4324E3389C5B97DE9064DC68F7DD'
p680
sS'6854D1A356C3B473908C846ED35CEA4A'
p681
S'720C1637EC413AA781A963C1E5C4663E'
p682
sS'762C6EDC7EA18C50A1163D5680E86344'
p683
S'720C1637EC413AA781A963C1E5C4663E'
p684
sS'D4A8793102F093A740EA92935B159902'
p685
S'720C1637EC413AA781A963C1E5C4663E'
p686
sS'4F2272BA078F193FDBFA199F3C896F51'
p687
S'ADBB8F74BBD76FA4EA0D75ED4999C63D'
p688
sS'17B2EE2F8E61DEDE9E45DAC3FE9089F4'
p689
S'720C1637EC413AA781A963C1E5C4663E'
p690
sS'BA3EC1BA60662472ED3124257F8CFBDE'
p691
S'720C1637EC413AA781A963C1E5C4663E'
p692
sS'659E7563031141C49A6F290D3B1FD57D'
p693
S'E841F7DEAEBB659B2C25C34F14A3A243'
p694
sS'03CEEFCF37A6D8EC93CAEA4D23841345'
p695
S'67BEED30CE9AF136F60DD07CE82EF37D'
p696
sS'CBA1F6883EFD94331565D501E947CBC7'
p697
S'8C8D75AF6B9DEA2520A8D44D6AA8BCEC'
p698
sS'4B880037CEB3621E10862F6E26D18867'
p699
S'28F9CFC54EDFD63727C31C69E64846AF'
p700
sS'DB2CCB92C030C24A31E12EF86F224DCE'
p701
S'720C1637EC413AA781A963C1E5C4663E'
p702
sS'799911ECACC9F858FBFB4A079FE70458'
p703
S'720C1637EC413AA781A963C1E5C4663E'
p704
sS'61B7D6668A1999B6F03BB7DB6C9F1C0A'
p705
S'EBE85396E18EE0086B17D3FBCEB3B02D'
p706
sS'B36648D31C21FBBB4706D4725FD3EDA1'
p707
S'287D4324E3389C5B97DE9064DC68F7DD'
p708
sS'DB9779A64C51A6C4015F4662FC2E7A2A'
p709
S'287D4324E3389C5B97DE9064DC68F7DD'
p710
sS'022BA7D6EE18BEE4614A2E5322C2F8A8'
p711
S'6BCBD30A2792687CE4DA222EB1CB34DE'
p712
sS'2AC57657D9CAAF68963092EBD0707613'
p713
S'720C1637EC413AA781A963C1E5C4663E'
p714
sS'441CDA7CD163057A4B313793AE122E2E'
p715
S'287D4324E3389C5B97DE9064DC68F7DD'
p716
sS'1DB70BCFB748FBC54664536A7AA4F8C6'
p717
S'D289A7C8FCCF0D8F252F7EEEB78E03C9'
p718
sS'A64CD7B72F2A34E1B3C0F5C68E3D2955'
p719
S'720C1637EC413AA781A963C1E5C4663E'
p720
sS'F528C2CE8719C36AEEA85C255D5A7DCC'
p721
S'287D4324E3389C5B97DE9064DC68F7DD'
p722
sS'D18C628916BE69CC3F0FA3F199F6DF47'
p723
S'5D8D5DBBF6B7AD553A60F7491E34B34E'
p724
sS'54FD2C9B51F0F175D32BF312526DE36F'
p725
S'720C1637EC413AA781A963C1E5C4663E'
p726
sS'B0655F2EA9CF497FCBB8C048B1FDA00A'
p727
S'720C1637EC413AA781A963C1E5C4663E'
p728
sS'2F60802CFEA4393056F1927932FE7139'
p729
S'4369CD49D4BB6D00ABA07654B030A95C'
p730
sS'21363876421A31BF4B076E6E62B3C5C9'
p731
S'287D4324E3389C5B97DE9064DC68F7DD'
p732
sS'4D9757D31C769E645E607BD2CB895BCD'
p733
S'DB2AD55A8A33C4BA3E2572A0F2D1A258'
p734
sS'F6873CD681539F47C20399BCBEB67A84'
p735
S'287D4324E3389C5B97DE9064DC68F7DD'
p736
sS'AEEABCBDE5072E8DE91CFA78C9EB1635'
p737
S'720C1637EC413AA781A963C1E5C4663E'
p738
sS'EA60668FD40AED79F487DFAA5167377E'
p739
S'654F30FFED1A1D106008A61EFD65F1E9'
p740
sS'D15745C892B5614F902FEE259D43A135'
p741
S'7B8C37B6B6378EB95CE23326C1AA2C49'
p742
sS'DCC6A65C4165FF843D27565F75AED9B6'
p743
S'287D4324E3389C5B97DE9064DC68F7DD'
p744
sS'FBB50368A713113365BF1DE21BBE6B64'
p745
S'287D4324E3389C5B97DE9064DC68F7DD'
p746
sS'8BF4C74BEAE63EF80BF2B7272D2527ED'
p747
S'287D4324E3389C5B97DE9064DC68F7DD'
p748
sS'2BCB12087BF9960B2FA51214821B9B80'
p749
S'D37F79E2732D5B1474305F5ED43A4B0E'
p750
sS'940F50F55E60C29B49356C10879E89F0'
p751
S'44E207C6DEA90F882C4F4EF28BF04E10'
p752
sS'797DBA9F7E039AAD869A7FD0FE8135FB'
p753
S'74CD99F821C404E3E21F248D149F8C45'
p754
sS'42ED693C4296D504BD664163CCEEAC45'
p755
S'CD681E2F9CBB36D68B646FFA0D6F156B'
p756
sS'0D4579EEADAC20A6EA3020BED41C9ACD'
p757
S'DBAB7641FD1733974E9D25CD45A28D09'
p758
sS'775EEFA8E50689D9B2FC40408A26F5CC'
p759
S'287D4324E3389C5B97DE9064DC68F7DD'
p760
sS'F084B9FA972B1D9EA0121E896B53B729'
p761
S'287D4324E3389C5B97DE9064DC68F7DD'
p762
sS'C239F5C46619FC388299A843923408E2'
p763
S'720C1637EC413AA781A963C1E5C4663E'
p764
sS'5BCD3709999A5D22F2E13A572382CA19'
p765
S'FDA55B42E7E7BA8BEBCA1CA055B9C71D'
p766
sS'3B305D871D2B31AC0EDF7F220B6EE6DB'
p767
S'287D4324E3389C5B97DE9064DC68F7DD'
p768
sS'8F1AE3D69B9BD98015C94188C893521F'
p769
S'720C1637EC413AA781A963C1E5C4663E'
p770
sS'A3F121B5CA284BB50BABEE81491488C6'
p771
S'720C1637EC413AA781A963C1E5C4663E'
p772
sS'DA92F39118F719835D491911BB8532F0'
p773
S'F3F71E281D583AD5F9FABCA2B3310DB3'
p774
sS'7B967DABD9791F99829CA22EB223B4BB'
p775
S'73CCBA4005228F9B9C1A76CF48835A92'
p776
sS'4E27EFF505EB6CA56E0740049325ADBC'
p777
S'E783562B320791EB3490029043F5784E'
p778
sS'DC9B02ABE53D24C648F964CAE25D7D94'
p779
S'720C1637EC413AA781A963C1E5C4663E'
p780
sS'115D27D64461EBE5FBB30FE1C92F8563'
p781
S'2CA9E96629148EBB695787E71E350E53'
p782
sS'A4098868484F65D76D230E34DF656E10'
p783
S'720C1637EC413AA781A963C1E5C4663E'
p784
sS'1E1A55A4583B498D7CF9B1296D0E0D02'
p785
S'7DDB11277FD31E5D5A09E28B7B73DEBF'
p786
sS'F8756C014A383FF0CAD2F5C37F64367D'
p787
S'720C1637EC413AA781A963C1E5C4663E'
p788
sS'A8D01587F447E6B7ABD2B1E67AE32471'
p789
S'36FAAC562BDF8D47945CF28DAF878ED4'
p790
sS'F30BCCA5FF7018ED5ED7992D6CDEE7BD'
p791
S'720C1637EC413AA781A963C1E5C4663E'
p792
sS'225E58367ECDA0068EF4F91D9E85C66E'
p793
S'367012F8159648C6402A4435B4560BCB'
p794
sS'3D7D7995B76064B67B9A5D10DC017AB5'
p795
S'4685BEFFBF22B93365BD8ABB639B23EE'
p796
sS'817604BF029FB2ABB14DF26298976086'
p797
S'ED5B963649C98F4C48C9E38F6B2D7A03'
p798
sS'D843292BDA2D3F77AD57D68810F77C2B'
p799
S'D71D2DEE514E417D63579C309BC07C52'
p800
sS'30248364EE3586588D27510C19553541'
p801
S'287D4324E3389C5B97DE9064DC68F7DD'
p802
sS'C225B1BE85D1DC3415BC85440DDA161B'
p803
S'A55537C77230FD4AC51BC85448CBB305'
p804
sS'5E9062B36387330F4AA789DF4D43ACAC'
p805
S'4ECC4B92EBA8757D70F0B1AA3212470D'
p806
sS'39B244E91B5122D3CFAAE7E40628939A'
p807
S'02179E99B6571985408B68985154E9E4'
p808
sS'50D4BDE185E37AE55FC7DC28539BABD1'
p809
S'4AE9A43CAB92A3F35C4937A03A43A615'
p810
sS'7ECB29ECEEFB41F5B87E88F6989704FC'
p811
S'B4D389A48684A4649BC472FA60AA54C6'
p812
sS'D18C9F66C41AA068BC43731D7873D06B'
p813
S'287D4324E3389C5B97DE9064DC68F7DD'
p814
sS'21C751A95B52DCEDD108BBDFA950CD5C'
p815
S'720C1637EC413AA781A963C1E5C4663E'
p816
sS'2EFDE96591A6E7182D85168A2CA97A18'
p817
S'287D4324E3389C5B97DE9064DC68F7DD'
p818
sS'586315B23D8DC92DEB4C10CAFEF22D7B'
p819
S'287D4324E3389C5B97DE9064DC68F7DD'
p820
sS'1EADC0CBF01F2016C6C72F4EC6C833DF'
p821
S'720C1637EC413AA781A963C1E5C4663E'
p822
sS'0875B5F61D9141AB61D5B1BEE905FA6D'
p823
S'287D4324E3389C5B97DE9064DC68F7DD'
p824
sS'ECD70FA2CDF33E9B91C1ADF957BD8447'
p825
S'720C1637EC413AA781A963C1E5C4663E'
p826
sS'F33A2C11412ED9029745A421337FC807'
p827
S'287D4324E3389C5B97DE9064DC68F7DD'
p828
sS'8E0F4813D634B09ADEC14B61C260B6CB'
p829
S'4571E434260FC7D29044C479B733076A'
p830
sS'1510AEC4759FC7C6643605D500A4967E'
p831
S'287D4324E3389C5B97DE9064DC68F7DD'
p832
sS'8963E1E1901113E1779E7E52C50A48A5'
p833
S'287D4324E3389C5B97DE9064DC68F7DD'
p834
sS'13D3A2F976A58093067840C5FDF9F611'
p835
S'720C1637EC413AA781A963C1E5C4663E'
p836
sS'6CA91A9ADD3DE846F45CE17971226838'
p837
S'287D4324E3389C5B97DE9064DC68F7DD'
p838
sS'987741D8995819396F594E2FF6D48B85'
p839
S'720C1637EC413AA781A963C1E5C4663E'
p840
sS'10662E19B4DCD3F2B9FA2F32D13B75B2'
p841
S'287D4324E3389C5B97DE9064DC68F7DD'
p842
sS'2E33A2E523E6F4DB8FC32614DBE895EC'
p843
S'05C27D936E2A6A66CE36ECA0E91E4430'
p844
sS'3428B4EBA78A218F97E2647BAAC648C5'
p845
S'720C1637EC413AA781A963C1E5C4663E'
p846
sS'AA8062D5B2E057F12E99148EAB0F4136'
p847
S'720C1637EC413AA781A963C1E5C4663E'
p848
sS'43E2E2A8A404290B4D3BBBF5EDE8B6FB'
p849
S'FD832C35105933968A217AEF7FD38E40'
p850
sS'EC4B031C116919F09DD1963A9C81B129'
p851
S'287D4324E3389C5B97DE9064DC68F7DD'
p852
sS'5F588086D0D2B941A2F52DAA221FACFB'
p853
S'720C1637EC413AA781A963C1E5C4663E'
p854
sS'A2BDA7CBC2EF9B977BD0D7C7BAEE7016'
p855
S'865391AF60B44DAFFC8F5D646A7FE743'
p856
sS'575C56B72046A874D627F06F964C55EF'
p857
S'9F0DB015B2897063DB62F76A93885982'
p858
sS'E5D43439640F95A0C05311640F21D886'
p859
S'287D4324E3389C5B97DE9064DC68F7DD'
p860
sS'72D64CAE8EED9B468E5F633908C42D2B'
p861
S'720C1637EC413AA781A963C1E5C4663E'
p862
sS'B5228E5D47403D3B8030F50D1B1578CA'
p863
S'287D4324E3389C5B97DE9064DC68F7DD'
p864
sS'80B4BC3DE2DDA89C115196A5C13EA8E5'
p865
S'C5AFCE5228974533D9CB150D4502351C'
p866
sS'22B9FE04ECC80E789CC44DF923EC440E'
p867
S'287D4324E3389C5B97DE9064DC68F7DD'
p868
sS'07FA1FC38C2B538CAA030F362F643D45'
p869
S'287D4324E3389C5B97DE9064DC68F7DD'
p870
sS'00F3C386C189D3E98C3020E2938AB659'
p871
S'C59BB172C594FF701EAE87D64EA3D192'
p872
sS'30204B0A5C1DDA21EA704A76C309CE9F'
p873
S'58876747A1622070A60C5F84EB618F22'
p874
sS'1F785B8E4EF4F912171E031E1186A26E'
p875
S'CA0A10345B303CCF03DE551BB678A1A8'
p876
sS'02E2119A7E847830FF188A48107FDF45'
p877
S'CBD7A0119F9030C5EBA9FAE7C711EC1D'
p878
sS'CBD422C67C9E4CC730E6D2792C0319E5'
p879
S'287D4324E3389C5B97DE9064DC68F7DD'
p880
sS'7455B68D5B050E7880F2795594425E9B'
p881
S'287D4324E3389C5B97DE9064DC68F7DD'
p882
sS'A2019D648824BF3EF126DB9E6A6757A9'
p883
S'44E207C6DEA90F882C4F4EF28BF04E10'
p884
sS'02D0789A31DC3EB28A1F353F8A721B9D'
p885
S'287D4324E3389C5B97DE9064DC68F7DD'
p886
sS'AB8182A68134744A4C3A86D0F0142090'
p887
S'AF06DE3E4613E822190A4D70045EEC25'
p888
sS'3170616E8F8F7120D2DA3EEBA8D27D9A'
p889
S'287D4324E3389C5B97DE9064DC68F7DD'
p890
sS'ACE05FCCD820E96E9EEAED3ED7E64B0B'
p891
S'720C1637EC413AA781A963C1E5C4663E'
p892
sS'750D872BC94FD5FF4540865BDB062B96'
p893
S'287D4324E3389C5B97DE9064DC68F7DD'
p894
sS'79587D6700499344699D86D95F091CED'
p895
S'720C1637EC413AA781A963C1E5C4663E'
p896
sS'BD3CA5E2960F27E92107B57902F43AE7'
p897
S'287D4324E3389C5B97DE9064DC68F7DD'
p898
sS'B6D654182B2742EBC82AC982C16CA8BF'
p899
S'720C1637EC413AA781A963C1E5C4663E'
p900
sS'317B8F522154A66A32292834552E9F17'
p901
S'75C6C33B177E47F7816E8EB8CBCF6270'
p902
sS'26DA3B0545C9FE974EF43E1289A6F6E6'
p903
S'287D4324E3389C5B97DE9064DC68F7DD'
p904
sS'DCEF12211AF5061A17D9CDD1D0FC564F'
p905
S'44E207C6DEA90F882C4F4EF28BF04E10'
p906
sS'DB922DBC92D340BCA771AE3C25844B27'
p907
S'A94E674EA9609B88E4E19C92169EC523'
p908
sS'2AF6554705D1EF471E7339BFC8037A19'
p909
S'75C6C33B177E47F7816E8EB8CBCF6270'
p910
sS'C9B408546402165003CB739B045C11D6'
p911
S'720C1637EC413AA781A963C1E5C4663E'
p912
sS'DF1A1B3943C124237FE6C4A85756B411'
p913
S'720C1637EC413AA781A963C1E5C4663E'
p914
sS'A8F63E79C7E09F1A62D22B701309FDE0'
p915
S'720C1637EC413AA781A963C1E5C4663E'
p916
sS'86B0EF98BB6BA2CE6CFC2F7AFEE16945'
p917
S'352D373C4C38EAEF5C2B9C79B9C33459'
p918
sS'F4DA74174A2F3F4F877ECD0EE4A4BF3D'
p919
S'287D4324E3389C5B97DE9064DC68F7DD'
p920
sS'99ADC4A621EACB080817F3A9A8359535'
p921
S'287D4324E3389C5B97DE9064DC68F7DD'
p922
sS'A94F0C27204631806001D69AD922055E'
p923
S'720C1637EC413AA781A963C1E5C4663E'
p924
sS'41BD92CA7156CF3367A32E1BE2701043'
p925
S'B16FF29EF6281314357CE76FDA6E6596'
p926
sS'60B9D0874F880A6A5B82D6D8103E44F3'
p927
S'410571D01FCB681CF6378CB9E8B97D50'
p928
sS'51AD27728CBA0DAD43ADC146A81CE651'
p929
S'2FB28F11A1B13E47F049590DA01A1091'
p930
sS'7D35CD65E842405FD4BE132660D9C96A'
p931
S'2F48A0A94E31128807BC1021A863EDFA'
p932
sS'B841D1D29D0ED9FE0B7610C1A1E38D12'
p933
S'720C1637EC413AA781A963C1E5C4663E'
p934
sS'21219474D077C2A1AF62102AB1FAECF2'
p935
S'287D4324E3389C5B97DE9064DC68F7DD'
p936
sS'F94BD721EB45FD5D2FF802DC394B9626'
p937
S'970F8BD4E9FAC6E17C69D5F1CDB2D5B4'
p938
sS'61B53CD8EA5B17C2C47DC2E4E71DAF86'
p939
S'AF643BA90D7857ED69A7A6484CEB0225'
p940
sS'F07992B52F3DAE51B2607D88EA113874'
p941
S'B0C62B62D60739F79805D8E8CE3D0804'
p942
sS'23F40BEB23274EF6CC2F9C747DE00B8A'
p943
S'F8FD826E20712855100246234AA16EA9'
p944
sS'5064DA98C8CCFE727F86B948E1B25292'
p945
S'8EA9B55837C3D0205A9785133D7F712E'
p946
sS'D43AB14A5628D098036DE9C4C3E8450F'
p947
S'287D4324E3389C5B97DE9064DC68F7DD'
p948
sS'EF343D8CCCC8F44C8C19FCA0615EF0B5'
p949
S'720C1637EC413AA781A963C1E5C4663E'
p950
sS'D2167848E8158CC8CD7ACD400C2D7251'
p951
S'720C1637EC413AA781A963C1E5C4663E'
p952
sS'C8B5FA339F9E1AD6FCA1CA1037C0D3B0'
p953
S'2AECD3F2E6F3DF72E78217BB31EE33DD'
p954
sS'49E0AB244AC0F7C0C034136103625BF8'
p955
S'720C1637EC413AA781A963C1E5C4663E'
p956
sS'5A4F740D3756CB1CE5FA92BB70F9FED8'
p957
S'44E207C6DEA90F882C4F4EF28BF04E10'
p958
sS'C4079B2AA849DCD71C09BB6D1E76B55F'
p959
S'2E0BEA8C5B30887CDEE8D506F59B894A'
p960
sS'628162044E9618F0BA8AAF146CCC78E9'
p961
S'720C1637EC413AA781A963C1E5C4663E'
p962
sS'CF97FA37A2103230A541FA42967667E9'
p963
S'A061E371DA65087340207DB0C485DA87'
p964
sS'0070E4AF0B85C28AA84EE422208F478E'
p965
S'287D4324E3389C5B97DE9064DC68F7DD'
p966
sS'BFEA8F2115DB8D325E0BB9EBC6C8E232'
p967
S'511A5F6B3CAF36B6ECCD935926F374C6'
p968
sS'194B9704808DA2D44AC4B1BB9153FD78'
p969
S'720C1637EC413AA781A963C1E5C4663E'
p970
sS'D2FFAAEF7AF167A790B3EECA264F2C90'
p971
S'720C1637EC413AA781A963C1E5C4663E'
p972
sS'EA47A8F705DC45B59414DF48442550CD'
p973
S'23B7534F27248A84B62EF32D6704EEE3'
p974
sS'179B25E08AB83C0D2175715DFFDB4861'
p975
S'C0892AA3B59FFEB615EC7F2741AD7E2A'
p976
sS'430D8F169EAE6C3245F13AFDC34461B6'
p977
S'7C36498F9CDC065D1C8B6ABBA24AEDF0'
p978
sS'7C29E6A0A6CDEB6F05DF8AC225C0A859'
p979
S'923202B1D7EEAA98E7BB4AA435B10964'
p980
sS'241C02B211435105B087D320928AFA08'
p981
S'720C1637EC413AA781A963C1E5C4663E'
p982
sS'004008E8C022D68B498EC549A12526C6'
p983
S'352D373C4C38EAEF5C2B9C79B9C33459'
p984
sS'0665AFFF0622BDBBF445C88211BCF2ED'
p985
S'287D4324E3389C5B97DE9064DC68F7DD'
p986
sS'4020677C7D1CDFB2AB85E42B2A773FD2'
p987
S'720C1637EC413AA781A963C1E5C4663E'
p988
sS'9CEEBE63AA3140527D2DD9EBBFB636C5'
p989
S'287D4324E3389C5B97DE9064DC68F7DD'
p990
sS'86F80E0F2A95F818B23083A141DFE75B'
p991
S'F7DB9E118E9E252B10F6DB7FA0C8C104'
p992
sS'F15345CF46579B00B5AE8C5F7B3FB372'
p993
S'287D4324E3389C5B97DE9064DC68F7DD'
p994
sS'D28FCAD609FF0C8078D49F92138A4088'
p995
S'287D4324E3389C5B97DE9064DC68F7DD'
p996
sS'10D003C9F06D3ACC2A7E55B27214F8C4'
p997
S'4DFA01FA683832B38D9AF49D4FCC088D'
p998
sS'4AE8C51C8665E0DC6599B742CE3944A2'
p999
S'720C1637EC413AA781A963C1E5C4663E'
p1000
sS'10633ADC29D67D412D54E4056F229072'
p1001
S'923202B1D7EEAA98E7BB4AA435B10964'
p1002
sS'0FB5569E81BFA086041858371F785973'
p1003
S'720C1637EC413AA781A963C1E5C4663E'
p1004
sS'2ED574214AEBDE68CCB4994DD4CFA289'
p1005
S'923202B1D7EEAA98E7BB4AA435B10964'
p1006
sS'0A1E230A8195C11187579D8B7DE1FCA9'
p1007
S'720C1637EC413AA781A963C1E5C4663E'
p1008
sS'9849CFB50DA4ADCFFA12504EBBD17665'
p1009
S'0FB197EF6F793A3DDBE6CD4472E77B63'
p1010
sS'F8E8AB199315F2ECFDDFA17601355BED'
p1011
S'F400280B3BDA7A7CDF7B569E60CA126B'
p1012
sS'2FDE7173F81870E8B2D31C34A3C2F2CB'
p1013
S'287D4324E3389C5B97DE9064DC68F7DD'
p1014
sS'280DC6C67DE0A9D0BF47D83BBE8D1CF6'
p1015
S'A1BB4D9B70DBA9D7C9F57625A1FEBEEE'
p1016
sS'BA7A94B94F04C67A96C40805D6A7F335'
p1017
S'287D4324E3389C5B97DE9064DC68F7DD'
p1018
sS'E4662982810FD46F4F5A19FF9CC4E91F'
p1019
S'720C1637EC413AA781A963C1E5C4663E'
p1020
sS'6BA236A9759C7618642A10A0D9CBE8EB'
p1021
S'4CD9834712880F549BFA6EC832E312EE'
p1022
sS'5E692F596013C5DEB806CD38AB44CAD6'
p1023
S'287D4324E3389C5B97DE9064DC68F7DD'
p1024
sS'7562FC22D3B462335A7F1EA197AEDE41'
p1025
S'4ECC4B92EBA8757D70F0B1AA3212470D'
p1026
sS'23E81D735CB760DD7BFB8A16BE69B93D'
p1027
S'A7A9D8188C2736361A50BA6052BF901C'
p1028
sS'68E58CAB71E320D6E8157BC0FC32AF75'
p1029
S'35912CCD50DAF73EDA9B59F50150FDDF'
p1030
sS'AAAD933F4C6D825AE98AA4200A3B2804'
p1031
S'720C1637EC413AA781A963C1E5C4663E'
p1032
sS'B8E699D39B1B7E14FCC8B143723A971C'
p1033
S'720C1637EC413AA781A963C1E5C4663E'
p1034
sS'03E34EEF74AF6C7741AFC16BCCB3F0DB'
p1035
S'287D4324E3389C5B97DE9064DC68F7DD'
p1036
sS'2D2DDCE108817A79EC1EF0D55EEBC16B'
p1037
S'720C1637EC413AA781A963C1E5C4663E'
p1038
sS'624D7E40A53663BA033D0506877B8A58'
p1039
S'469CF6842EB1332B9257770B90F95B3D'
p1040
sS'F321854E5E89BBC00215E7C096BD215D'
p1041
S'BC0AAB1C2538707BF54193AC868FE1F2'
p1042
sS'F89DC5D9939835A952127E53729B39CD'
p1043
S'720C1637EC413AA781A963C1E5C4663E'
p1044
sS'3A8DACB3C447F30FB40D282AB1EF8937'
p1045
S'720C1637EC413AA781A963C1E5C4663E'
p1046
sS'2A346301D3595E16BD56D751215FE044'
p1047
S'5430D51E0F03DC22740108270588A221'
p1048
sS'EB4CE449A0898EB5463DCF5CA82D6E62'
p1049
S'287D4324E3389C5B97DE9064DC68F7DD'
p1050
sS'5A3C81F1F25DD3D904E85493673CB1C8'
p1051
S'287D4324E3389C5B97DE9064DC68F7DD'
p1052
sS'41DB5548C2F47F4330BE9B8F16819CEC'
p1053
S'720C1637EC413AA781A963C1E5C4663E'
p1054
sS'622FFD6A7B7A6C4B4E04B039769DAFC1'
p1055
S'720C1637EC413AA781A963C1E5C4663E'
p1056
sS'7AEB560545B768F50CD795803148728F'
p1057
S'287D4324E3389C5B97DE9064DC68F7DD'
p1058
sS'0F6C7F05CC2875C3A2EB2D85221DA758'
p1059
S'720C1637EC413AA781A963C1E5C4663E'
p1060
sS'537AD95344563627B87AA527E9783EEC'
p1061
S'287D4324E3389C5B97DE9064DC68F7DD'
p1062
sS'28A3F0A3A4F37E9DAB24EA9B326BE25B'
p1063
S'720C1637EC413AA781A963C1E5C4663E'
p1064
sS'AB8FA803B2F692C13B0A762428E6C99B'
p1065
S'720C1637EC413AA781A963C1E5C4663E'
p1066
sS'C3F27CB606B4D7B63A60E7A7A3FC0D84'
p1067
S'287D4324E3389C5B97DE9064DC68F7DD'
p1068
sS'3BEAF0344A1C798B25FA74F9D8B0036C'
p1069
S'720C1637EC413AA781A963C1E5C4663E'
p1070
sS'D46B0A9D507A021A0FA1A44DB369DE76'
p1071
S'287D4324E3389C5B97DE9064DC68F7DD'
p1072
sS'95C995E84EC45759A492938C583D7C43'
p1073
S'5287C6B18885146B09F2E5D40FB01FAE'
p1074
sS'F0046D122AFA329107432A842A971459'
p1075
S'287D4324E3389C5B97DE9064DC68F7DD'
p1076
sS'2A47F2D7F189340C1D1D39659EC7F36D'
p1077
S'287D4324E3389C5B97DE9064DC68F7DD'
p1078
sS'8DE171318463121A9691209CF033DDC1'
p1079
S'9CA0360AE440761F5C7D19A7C1AD5445'
p1080
sS'B46669C617BCB9CB883716560F6ADA05'
p1081
S'48352C504A338F85134577D6162D2B46'
p1082
sS'FCD81F1B0AAE400DA993A221F4D86BE5'
p1083
S'720C1637EC413AA781A963C1E5C4663E'
p1084
sS'865A0171364E305D4BDAD2EF80426C93'
p1085
S'8568D947B460515981C858A53A410D98'
p1086
sS'0B23BEF4363189A65D895A7B36528D01'
p1087
S'9235DA2A8636169DD9384A3DC97013A1'
p1088
sS'DA72114BD998F9D9CB97B7E7B7C54C34'
p1089
S'BA175598D1CB81AD8F50120951C0BBF8'
p1090
sS'470D31686E731DAC6B15CF1C82BA1AE2'
p1091
S'287D4324E3389C5B97DE9064DC68F7DD'
p1092
sS'F850CBBF6C178BE2C8A0989B14F2D22A'
p1093
S'287D4324E3389C5B97DE9064DC68F7DD'
p1094
sS'6E447BC4AD2E39EC154CAD6B75876AAD'
p1095
S'287D4324E3389C5B97DE9064DC68F7DD'
p1096
sS'76FD81741DA7067D81ACC47D2C33BBF2'
p1097
S'84EAC991923BCB2FDEBDDD8A1F1556DF'
p1098
sS'DF28922570AD22DE8EAEAF9679394549'
p1099
S'2E2DF8924509F7DD3F109E98B9E2BBBA'
p1100
sS'F0CFE9A3E24FF09F2062A248FEE81F20'
p1101
S'3A6D85AA795CFBC9E60879FED37E3C6C'
p1102
sS'A89BB0BE5DD458AC160E788AE612F183'
p1103
S'BD99C3DF0DE10E338B7D5FC1BEF071E2'
p1104
sS'367DAA924E796FDFA8FD87C2AD1A7C71'
p1105
S'720C1637EC413AA781A963C1E5C4663E'
p1106
sS'9D5BB6C6F123FF355F22536EE87A663A'
p1107
S'287D4324E3389C5B97DE9064DC68F7DD'
p1108
sS'4F6D7351D6211AE6484B97686FB7A23A'
p1109
S'720C1637EC413AA781A963C1E5C4663E'
p1110
sS'7DCEA336B5889170142E8EE32F623B08'
p1111
S'720C1637EC413AA781A963C1E5C4663E'
p1112
sS'4BB823F9470BC6C980126AE5882F267F'
p1113
S'C894BD14812EB1EF597533AA3C7873B6'
p1114
sS'0F50E1909D869CDA847E5E8FACCBFADE'
p1115
S'287D4324E3389C5B97DE9064DC68F7DD'
p1116
sS'4F08DF2DB6F856B34D5136E1B9A523B2'
p1117
S'70E28E711F422DD6C0C638CDD89C29E3'
p1118
sS'95537F672379662F570CCD75332A2618'
p1119
S'720C1637EC413AA781A963C1E5C4663E'
p1120
sS'C25FE073B507126A247DAF4ABBF4BEC9'
p1121
S'287D4324E3389C5B97DE9064DC68F7DD'
p1122
sS'C968322CB8F1C76DC87BCE9BE8F8B6D6'
p1123
S'8DE2396B84931BA2B50CA03479B20A69'
p1124
sS'5E6C9CDA72405ED28265587BF5E09015'
p1125
S'287D4324E3389C5B97DE9064DC68F7DD'
p1126
sS'A46753F9115F2B68BAB7DA09DA6D7CB2'
p1127
S'720C1637EC413AA781A963C1E5C4663E'
p1128
sS'9148B5675C2B04A2D1C9BF6B1F8F335F'
p1129
S'20C485D7DBDC1710F31DB72F8864FB64'
p1130
sS'C561302ABAD640E00BA3152AB9AAADCE'
p1131
S'074A6C0FC9086EB691152FB663C5E6D8'
p1132
sS'97B7C5C9A9FA3BB19140C14268130B07'
p1133
S'1699FB0D29681E75790D29BB175B2150'
p1134
sS'77D5EE86095005CC7770A5E854958229'
p1135
S'1CB3261A8ACA5B11BA462F97C8E03E3B'
p1136
sS'BAF2CFE83ACC75E0A789CCCC0DB7D20E'
p1137
S'EDE21C16BC9021ED82EEA75D84960710'
p1138
sS'615A8B67DF0828FA2B5C7CF54B5A1015'
p1139
S'BFDF91B87E6626B2B113E8A9BF98C718'
p1140
sS'AF2636E03C038CBDDFFCF40B7258F7A4'
p1141
S'720C1637EC413AA781A963C1E5C4663E'
p1142
sS'CACBDD2047992C13C49287FED74CB73B'
p1143
S'B16FF29EF6281314357CE76FDA6E6596'
p1144
sS'D18C156B7B8F0E88303371A94ADB1EE3'
p1145
S'705D5805AAD321645586BE811869DEE0'
p1146
sS'9C2EC4A16E908368CD04577CB040FEAA'
p1147
S'720C1637EC413AA781A963C1E5C4663E'
p1148
sS'D1DF0EF36E403D5B58F183A4F2809F90'
p1149
S'287D4324E3389C5B97DE9064DC68F7DD'
p1150
sS'AABBD9DD7BA0E9A390232C8B9AE90F78'
p1151
S'287D4324E3389C5B97DE9064DC68F7DD'
p1152
sS'D256C2AE1FC7E869F884728E39E3F42B'
p1153
S'720C1637EC413AA781A963C1E5C4663E'
p1154
sS'3A906B7E44046B3A73F2A092E3B299E3'
p1155
S'B5B40BBA3FFD83B3F333A75CA0AADE86'
p1156
sS'A11D9C4A4E2892B1262F6DC13E406F58'
p1157
S'1A30ABCB9C2D4AA8E54DCCC139C065EC'
p1158
sS'52E1A944392F8CF3628E3B48E11CD782'
p1159
S'720C1637EC413AA781A963C1E5C4663E'
p1160
sS'0062A70E813BA6E89E797DD8F52FEEFF'
p1161
S'7611F9D949410A07B1B4C5A79F848D77'
p1162
sS'BDA77DD6E035D9E00CB529A6B2C2651A'
p1163
S'BC0AAB1C2538707BF54193AC868FE1F2'
p1164
sS'CC637C2A2D3F15B53D7399FFB3D8E292'
p1165
S'720C1637EC413AA781A963C1E5C4663E'
p1166
sS'7F2ADAAF8682C4D052A6433CCD97BE6D'
p1167
S'720C1637EC413AA781A963C1E5C4663E'
p1168
sS'8F942FD1561C0FC0017F9AAFE1D48D07'
p1169
S'720C1637EC413AA781A963C1E5C4663E'
p1170
sS'033D39E8630DFC49D369BE3354D5FBCA'
p1171
S'287D4324E3389C5B97DE9064DC68F7DD'
p1172
sS'5AC52798E889B8C969263FE7DE76DD32'
p1173
S'287D4324E3389C5B97DE9064DC68F7DD'
p1174
sS'BBD1D9CF616E5E5A05B861228CC89867'
p1175
S'C60FE98706B3D87E07DDD1FD7771B581'
p1176
sS'F7D9045C22D5D97ECAFB464CEABABDDE'
p1177
S'A7CAFF3413FC954EC67DF3C6FC9EE592'
p1178
sS'2A412D15A0584A9063E18EC3A2DCD9F8'
p1179
S'3A7EDC809AA7B465DB35F06F697400D3'
p1180
sS'3553AF1FC8E690B5410310E784C89CF4'
p1181
S'287D4324E3389C5B97DE9064DC68F7DD'
p1182
sS'24D294B5AC0C0A97E18367FCE28D96D0'
p1183
S'287D4324E3389C5B97DE9064DC68F7DD'
p1184
sS'00C96B07B792250B822BE99C15721B1C'
p1185
S'287D4324E3389C5B97DE9064DC68F7DD'
p1186
sS'0A211C07E265580EF13A722444D540CE'
p1187
S'287D4324E3389C5B97DE9064DC68F7DD'
p1188
sS'2CD81C201F39AE1F6A218CDC8DC600B9'
p1189
S'A39698BA90D976EC5292B58DBF06A890'
p1190
sS'2CE2C7AB2FCACB405BA730FA55576753'
p1191
S'F88D90D5B91CE123AAD023B8F19F60DD'
p1192
sS'0C81FB3528996B1438C3576157B0A0C3'
p1193
S'720C1637EC413AA781A963C1E5C4663E'
p1194
sS'D35B19E9BA37E0A8C2B0E61623A946BF'
p1195
S'2A424D24C3D6A36C3E463EAE8606F5D2'
p1196
sS'CD8EC3F772949FC8B58D7F4F7F96CC23'
p1197
S'720C1637EC413AA781A963C1E5C4663E'
p1198
sS'AF2351B11748A3B4A80E1D37D4249BD9'
p1199
S'6BA56E4A38BEA20AEAD1AE3A60CF5F21'
p1200
sS'5A9AD798505AAAE435872022E16591B1'
p1201
S'287D4324E3389C5B97DE9064DC68F7DD'
p1202
sS'C11B98D51F1C65BBBCA7D6835D530C3C'
p1203
S'720C1637EC413AA781A963C1E5C4663E'
p1204
sS'12BCAEA84772B7BDFF0A0953A92B11E4'
p1205
S'E4F7E35A6984E8D48CC0A374B8D0D480'
p1206
sS'A93BA181CE3EC810FF38BAAC8FF582B5'
p1207
S'5E03392D73FCAF0CCCAD6FD6382BDDA3'
p1208
sS'D7D7AF40D946987084523FA70DA8185F'
p1209
S'287D4324E3389C5B97DE9064DC68F7DD'
p1210
sS'F10B5D0EFE311183F52DACDF554E2381'
p1211
S'287D4324E3389C5B97DE9064DC68F7DD'
p1212
sS'84F70A65D9128EEBD483D45B174C5C2B'
p1213
S'720C1637EC413AA781A963C1E5C4663E'
p1214
sS'3A1B7BCBA16064421A19E5BCE93377E5'
p1215
S'287D4324E3389C5B97DE9064DC68F7DD'
p1216
sS'317B179C71E46E0AB763C91ECD5D59CF'
p1217
S'287D4324E3389C5B97DE9064DC68F7DD'
p1218
sS'FB42D0104463F46014B420FD48782877'
p1219
S'C3B5EE97FACDFB9FF78F9D319861EE75'
p1220
sS'4E8C5EFD7120470416BE5B7460303EAF'
p1221
S'DDBDCFB565A5EADEC6CCDF47224D7EC5'
p1222
sS'8FCF02EE1BD16A828CCCB508AA994389'
p1223
S'23E95C98FD4776ACACCDAD77C0005019'
p1224
sS'EEC7CE67671616A44800D312E9DE57CD'
p1225
S'720C1637EC413AA781A963C1E5C4663E'
p1226
sS'41D2ECB64FE0B731890A3ADF2CAA2E46'
p1227
S'287D4324E3389C5B97DE9064DC68F7DD'
p1228
sS'FB08A95F098D057C48E80F0900FEEFC9'
p1229
S'287D4324E3389C5B97DE9064DC68F7DD'
p1230
sS'1E181C1792714A6FB9D9C46ED6A882B4'
p1231
S'2B3D6100800676FD6F2FAAFF06C46569'
p1232
sS'F7FC8FE5466E35BB8AB6E7FE71018586'
p1233
S'287D4324E3389C5B97DE9064DC68F7DD'
p1234
sS'B648F6C0488B97EBFBC68CC8B3285B41'
p1235
S'287D4324E3389C5B97DE9064DC68F7DD'
p1236
sS'8BFFB010F72F97152B81C58A09766D7C'
p1237
S'720C1637EC413AA781A963C1E5C4663E'
p1238
sS'0F5FFB2C8FB9EAD2E1F32DB33A95BBEA'
p1239
S'FD39CA3D6B411ADDB9178FAB7BA4EAD2'
p1240
sS'09CE6E541FFCADC3D5452D2359D9677E'
p1241
S'F2AAC1F9662765F90015422CFE5C8F5C'
p1242
sS'E67A7C9B2A647EC6B70DFCB01F81D65D'
p1243
S'287D4324E3389C5B97DE9064DC68F7DD'
p1244
sS'224EA411FEDD5AA212A40F4E5BC9D361'
p1245
S'287D4324E3389C5B97DE9064DC68F7DD'
p1246
sS'9EC38318824B9184B87F9BB921E90706'
p1247
S'720C1637EC413AA781A963C1E5C4663E'
p1248
sS'96DB8AD0C7BB3F144B770C106FC5A91A'
p1249
S'7918BDF9A10BACC6433E651C93B7E952'
p1250
sS'6D3F57411B2B22361874B86C4C01C13A'
p1251
S'720C1637EC413AA781A963C1E5C4663E'
p1252
sS'5FD77A9F5FED07D9B4E680578DBD6979'
p1253
S'287D4324E3389C5B97DE9064DC68F7DD'
p1254
sS'727503F765612ED0E33A7D664534D2DE'
p1255
S'C9742508C2339C6747092B033A9FDFFB'
p1256
sS'10A3AECEF526AC5102396D35CA3D1B32'
p1257
S'AA95457A6D7090DB95218BEECF6BA638'
p1258
sS'EB5C1167E00C1F765BBF90DDB39F8326'
p1259
S'720C1637EC413AA781A963C1E5C4663E'
p1260
sS'EFD73858070EC8A0B4A34FAE3EDC20C9'
p1261
S'4DCE2730A18E03B425792CBF9B81178D'
p1262
sS'5EAA281DDA71D6482899DBB766C77E27'
p1263
S'720C1637EC413AA781A963C1E5C4663E'
p1264
sS'9BF10947F1B8ADE4C3744020E62B2B55'
p1265
S'720C1637EC413AA781A963C1E5C4663E'
p1266
sS'24EC6C475061DEC1D7FE0BE2E207CBA8'
p1267
S'A94618A2D164DAAF80161469EFEFE0DA'
p1268
sS'BEC4319EF982EFC5F8E8F1E57D71D76E'
p1269
S'5BF856F2F0E17D0CE573363A2FA16034'
p1270
sS'32E6BFD714519139038A4F86A1BD0E2C'
p1271
S'720C1637EC413AA781A963C1E5C4663E'
p1272
sS'35BD0F1BA632027231FC0A6CA5F74005'
p1273
S'45C7ECF227E88448C06666E7FCDB1BFA'
p1274
sS'D6A416F3D2D1A5BF0F8255198F507D74'
p1275
S'287D4324E3389C5B97DE9064DC68F7DD'
p1276
sS'551DD65430C063595528219EA15FA506'
p1277
S'287D4324E3389C5B97DE9064DC68F7DD'
p1278
sS'D55E1EFA7F3717352A32DF931A26E355'
p1279
S'53D4B67FB6895F373F41A6EAEDD6F05C'
p1280
sS'83342A58B0D916EA2EE847FF4E1F806A'
p1281
S'AC5728527794B088E835AD7FCB514909'
p1282
sS'C4F46740AFE9983DF2485CA799B410F9'
p1283
S'720C1637EC413AA781A963C1E5C4663E'
p1284
sS'A0991E13CC8800DC59D5D43B97CE6181'
p1285
S'034548B3971600E49457412FD95699FA'
p1286
sS'3C943903D6C3A419E0B11276DF07EEC2'
p1287
S'287D4324E3389C5B97DE9064DC68F7DD'
p1288
sS'A87AC588AD872AECFEAA48EF81E3AC03'
p1289
S'720C1637EC413AA781A963C1E5C4663E'
p1290
sS'30D530DA26A36B74A0E2682AC5855C78'
p1291
S'287D4324E3389C5B97DE9064DC68F7DD'
p1292
sS'1FDA456ABBF4A1343064C120F267AA28'
p1293
S'287D4324E3389C5B97DE9064DC68F7DD'
p1294
sS'8B8D05ADF6995EE22D08F7CF52E1B453'
p1295
S'DDBDCFB565A5EADEC6CCDF47224D7EC5'
p1296
sS'05991127176F0B14551905422ACC613F'
p1297
S'058E5218F876F0A814BF98C39CF74FD6'
p1298
sS'B06F7EDD1449FC0838903EFB0C229480'
p1299
S'BD5EC75562CFB78FA21A110841B8D4BE'
p1300
sS'9577D93E4271F54F8C6AF68BFEC9B9CD'
p1301
S'287D4324E3389C5B97DE9064DC68F7DD'
p1302
sS'4084F5CE9DB544D3CB45A5B9A9DEBDB1'
p1303
S'287D4324E3389C5B97DE9064DC68F7DD'
p1304
sS'0B691757FF299BC8B5D671BDDB13538B'
p1305
S'720C1637EC413AA781A963C1E5C4663E'
p1306
sS'71D812743B787AAAFECFFACE255189B1'
p1307
S'0EED749ECAC90AD5EFE2623EE350A412'
p1308
sS'C41B1235A5B381B9819EA054902A3319'
p1309
S'287D4324E3389C5B97DE9064DC68F7DD'
p1310
sS'E7F14EAD4E8F6ADC7F084F4C0823E4E5'
p1311
S'287D4324E3389C5B97DE9064DC68F7DD'
p1312
sS'DF2D233D2CD0F7E1DAE18E5A899653F5'
p1313
S'8CF1661781A9BE28C5057DAD9B4C44D9'
p1314
sS'040A3826FF9C8F5EC118CDB19555BD6C'
p1315
S'A52307A1D3AB2CDED1ED11BF981503C5'
p1316
sS'D14B42C91E10E1D5DB73EC5F9DB84526'
p1317
S'85D37096EF9E179210CF03D28AB6C4F3'
p1318
sS'C20DEE8F573C32DFB2649890F0FA27AD'
p1319
S'1D1B951B9EAF9FB4DC3994CB7F4E1E29'
p1320
sS'3B59E13218A57D19ED143D0FFFC5B497'
p1321
S'91BB0AF1FD383482545891BE919CD98F'
p1322
sS'B20A368895C0EC2696D11AEBEFDCE3B8'
p1323
S'287D4324E3389C5B97DE9064DC68F7DD'
p1324
sS'CAAE8DD3CB3B2C019550206D94A06582'
p1325
S'57B7F75C5566034B2E6A1C8D6ED929CE'
p1326
sS'8DCB48AFA0DE848B52FA5093A77524C3'
p1327
S'287D4324E3389C5B97DE9064DC68F7DD'
p1328
sS'CEC1F220927B65B34226C40F1044C6F1'
p1329
S'720C1637EC413AA781A963C1E5C4663E'
p1330
sS'652F9C8A007DE23B82106F8E7831EDF6'
p1331
S'287D4324E3389C5B97DE9064DC68F7DD'
p1332
sS'9CA0D0E87618BC560748E1825FFCC3E6'
p1333
S'287D4324E3389C5B97DE9064DC68F7DD'
p1334
sS'885963C00BAD5869F883077AABDD67CB'
p1335
S'56DC97C8CEB2EF6B48D296FDE44FA975'
p1336
sS'6713E08D1B759A960026C8AFB119D393'
p1337
S'352D373C4C38EAEF5C2B9C79B9C33459'
p1338
sS'D4C68D75FC57E946B5311D03B87ADFBD'
p1339
S'DA63A01DABE7A1FDDF4EBD2081ED957D'
p1340
sS'4C380FCF1CB72D31C17EA687FF9633B3'
p1341
S'287D4324E3389C5B97DE9064DC68F7DD'
p1342
sS'604BA3745FADDC3968149019C14CA100'
p1343
S'6D4EE3DDBE98EA29ED8EF0A657EB6BD7'
p1344
sS'310E1134FD9477D5E5A14B3FBE4AD7D6'
p1345
S'C9A690C2B529A347A2BF5871AF3ABC9E'
p1346
sS'B4290D1E5D5FEFA94B55E19A81C92B62'
p1347
S'720C1637EC413AA781A963C1E5C4663E'
p1348
sS'CB9DDECEE3F770A00DAF9347CF19C06F'
p1349
S'287D4324E3389C5B97DE9064DC68F7DD'
p1350
sS'1E4EC6C9FB6B51C08C1D163C15AF9B0A'
p1351
S'57C8145BAB48FDCA9F17068D19FC4EF8'
p1352
sS'34675A5506F183E323E6556501BA4108'
p1353
S'DC6B918570B3B5A68FB89AA22A0FBF24'
p1354
sS'15EAFF5920F338AC854959384374C4A6'
p1355
S'50C68A9FDC4510EF6CC433240C223FC4'
p1356
sS'808C96EECC3F6259C305F5D9AADA7015'
p1357
S'720C1637EC413AA781A963C1E5C4663E'
p1358
sS'EA75EC1F4FBBB6B7610D1CE501C4F45A'
p1359
S'720C1637EC413AA781A963C1E5C4663E'
p1360
sS'E6201A6E82916F045F32C8D26E4454F1'
p1361
S'779D1A3021788807D85C1E12FC733529'
p1362
sS'78A48E55152D9CB0397836156434D955'
p1363
S'287D4324E3389C5B97DE9064DC68F7DD'
p1364
sS'BBAAF117FB6A38254E2D9DA94C0C3309'
p1365
S'A0C93FBEFB61C6F669887744E6A8465C'
p1366
sS'01D69824CB19AB6090BB668615AC2084'
p1367
S'287D4324E3389C5B97DE9064DC68F7DD'
p1368
sS'590605FDCD4FA1EB21C44A5474CB2509'
p1369
S'1D0D191E54FADDED1053C210D9BC56C8'
p1370
sS'910EA0D0C34A9F4D769B10E158800502'
p1371
S'287D4324E3389C5B97DE9064DC68F7DD'
p1372
sS'7150D636DEE4CD32DACD497FE2F76181'
p1373
S'720C1637EC413AA781A963C1E5C4663E'
p1374
sS'A27E5CD45D98612164221CA8A5B6D5FB'
p1375
S'287D4324E3389C5B97DE9064DC68F7DD'
p1376
sS'31DD889DDB469042E75ED9AE3E79748B'
p1377
S'720C1637EC413AA781A963C1E5C4663E'
p1378
sS'D9D4EB6274C2A92A772E9B169B607CA7'
p1379
S'720C1637EC413AA781A963C1E5C4663E'
p1380
sS'FDAC17B96D010BE8A316BA9EA1737775'
p1381
S'287D4324E3389C5B97DE9064DC68F7DD'
p1382
sS'24768B48198AADB85EC9AED46CB81F4C'
p1383
S'55AC2A4DA42EFE4BC4A20E672AC3352A'
p1384
sS'506A50A66DA3F52EECB3C3446354B6D8'
p1385
S'CABA59F7DE595C3B0D67284DFD07A72B'
p1386
sS'83E72E05E97A3106AA93532567CDA989'
p1387
S'7F9CC41A025D693EBC10534B9B20177E'
p1388
sS'F0AF116DA75AAACA2483D45A32973F4D'
p1389
S'27F0CC99919176F688AC8A66DC85FC66'
p1390
sS'649125344D3F2D828091487D2477A6BC'
p1391
S'4EC08078762A9EE25A9D0F221B9CEF73'
p1392
sS'41E1310C73145AA6B3C75BBABBAC7DE6'
p1393
S'287D4324E3389C5B97DE9064DC68F7DD'
p1394
sS'592C2B7635CCE4F0EFE802640D285D5F'
p1395
S'720C1637EC413AA781A963C1E5C4663E'
p1396
sS'F495E160FC3127B32676CFCFF0BAD0FC'
p1397
S'720C1637EC413AA781A963C1E5C4663E'
p1398
sS'D4C05E67BDDD18CF49AEF2AFDA370E08'
p1399
S'DAF32A75FAE0629489814517C753F531'
p1400
sS'50CA4B703A648C1782DBBF029D8606D9'
p1401
S'287D4324E3389C5B97DE9064DC68F7DD'
p1402
sS'7A0FD3CF37BB2C3D47FC7D9FF1F0DC15'
p1403
S'287D4324E3389C5B97DE9064DC68F7DD'
p1404
sS'DAB882B99718CC76BAC15B864F3DEC45'
p1405
S'720C1637EC413AA781A963C1E5C4663E'
p1406
sS'15ACD06A0B7DB5C8E6BDF297F504D2AB'
p1407
S'287D4324E3389C5B97DE9064DC68F7DD'
p1408
sS'FBD05BC886338728057B758BF14183E7'
p1409
S'287D4324E3389C5B97DE9064DC68F7DD'
p1410
sS'5294C01DF0D67FBE1BA23087A0923782'
p1411
S'ECDF8D4AC38D720E5C6CF4426D7CD5AE'
p1412
sS'F0343917B09B8C31D60CBFDC9D5B283A'
p1413
S'DB2AD55A8A33C4BA3E2572A0F2D1A258'
p1414
sS'190F59DDD3A39C3AA6CF00AE304C75C5'
p1415
S'34D2D66D1557AE4978E86A81201813E2'
p1416
sS'FA7428BF58F98BA62A50CDDCCE615624'
p1417
S'720C1637EC413AA781A963C1E5C4663E'
p1418
sS'F6AED5EFD963CCF112C73A77C6EE1E37'
p1419
S'E910626D1D6ED6C7880A3F3C2A190D9F'
p1420
sS'22095C5834D9D9209CE69F946ABAE3E6'
p1421
S'720C1637EC413AA781A963C1E5C4663E'
p1422
sS'55368A2E4307D75A5902FFE78404F528'
p1423
S'287D4324E3389C5B97DE9064DC68F7DD'
p1424
sS'5D258C89EC7243F0926B398AE81A2BFB'
p1425
S'720C1637EC413AA781A963C1E5C4663E'
p1426
sS'12E3500B3F81C308794746A3A5E0018C'
p1427
S'720C1637EC413AA781A963C1E5C4663E'
p1428
sS'C6768ACBFF78B6E957D9F886DFF571D6'
p1429
S'CAF4654D12FB028EAAC1AAE849D1CE5D'
p1430
sS'63FAE6696ED816850FCF02867A6FDA38'
p1431
S'004AAAF9393D0C522863970DFDD61925'
p1432
sS'897F3ED8B3791573A95A2CC2DEB7DFDA'
p1433
S'287D4324E3389C5B97DE9064DC68F7DD'
p1434
sS'48AE7A1EA7E8259868C01EBC8BADCAC4'
p1435
S'287D4324E3389C5B97DE9064DC68F7DD'
p1436
sS'85B2A0557EC1A12BE678DC143732DBAF'
p1437
S'92C39EBE86691EE191CFC0AED96613D6'
p1438
sS'BF5C096B133CA1D2269202B4BB5480F1'
p1439
S'287D4324E3389C5B97DE9064DC68F7DD'
p1440
sS'1BBCA12F64EFB8058CC0965FB793519B'
p1441
S'9BF356B4F53EB5AF08929FE4A2F56443'
p1442
sS'82B6FD80FD50D8DA667438F7EB31D0C8'
p1443
S'287D4324E3389C5B97DE9064DC68F7DD'
p1444
sS'B19CEA60AEF5EED751A718FFBE67F991'
p1445
S'720C1637EC413AA781A963C1E5C4663E'
p1446
sS'08156E5D87F068E4D9E46448BD9D865A'
p1447
S'FA4BDC320861C03548A3CC67C301C8B7'
p1448
sS'9A4C087B9502A0DFE39093463AB09AEE'
p1449
S'FA3A219A2DF98FBEFF73A6A9DDF13F42'
p1450
sS'213D276A40053003BA7D10EA6026E084'
p1451
S'287D4324E3389C5B97DE9064DC68F7DD'
p1452
sS'47BA02F04730727DEBB583166B3229B9'
p1453
S'287D4324E3389C5B97DE9064DC68F7DD'
p1454
sS'F999206C5942B9EA9AB372170023D927'
p1455
S'DB8EFD2CD19AB20E0E0FCF39620C663F'
p1456
sS'5E811497EEAFDDED3E4CE056D2BA4282'
p1457
S'287D4324E3389C5B97DE9064DC68F7DD'
p1458
sS'A1A088B27B8B2B44A8ECB6A302A076BA'
p1459
S'334DA336120F5FBEB12A20F00A46F01B'
p1460
sS'B7180BE45582DFA45916C53C1AAC0C23'
p1461
S'287D4324E3389C5B97DE9064DC68F7DD'
p1462
sS'5E7B7BE0016EDFC6CFFC6C1B8F312ACC'
p1463
S'98DDE76F593E46F176B3D79E2F8A3181'
p1464
sS'EEE6D462F528BFC6F93D9C6B615519C4'
p1465
S'287D4324E3389C5B97DE9064DC68F7DD'
p1466
sS'BDBE3C9D562782C2033A52EAC575D2E5'
p1467
S'720C1637EC413AA781A963C1E5C4663E'
p1468
sS'D119918AB1D78F71B995DF54CF22BA60'
p1469
S'720C1637EC413AA781A963C1E5C4663E'
p1470
sS'E1DDC91591CD8A2775DFD37BDD57D7AB'
p1471
S'6C06C48D3CBBAD9495F3BE1C9A5CA348'
p1472
sS'15D8A7166039EE2661D371077F9A9F75'
p1473
S'287D4324E3389C5B97DE9064DC68F7DD'
p1474
sS'D0601096B0F84B4D2C22EEEF04F73F95'
p1475
S'862A25964BC4F739465E4CF3989EC43E'
p1476
sS'911C0627157CB945080CC785CF27F0F1'
p1477
S'287D4324E3389C5B97DE9064DC68F7DD'
p1478
sS'0C79A2244C282E923B0FEBC2BF9CB11F'
p1479
S'287D4324E3389C5B97DE9064DC68F7DD'
p1480
sS'BA3D8542D5FED2CF3EDDBF3FD17CE214'
p1481
S'720C1637EC413AA781A963C1E5C4663E'
p1482
sS'86A668DD6BC566E955BBC1551C173365'
p1483
S'287D4324E3389C5B97DE9064DC68F7DD'
p1484
sS'A56B0819CA1F5FBDA0535E09AD07C753'
p1485
S'287D4324E3389C5B97DE9064DC68F7DD'
p1486
sS'BDC45C398CADC441A9DD56D2D253845B'
p1487
S'1762A2A2E7D25C5813B280B138165235'
p1488
sS'983AF320528690F7A39A8D377E7E8F01'
p1489
S'287D4324E3389C5B97DE9064DC68F7DD'
p1490
sS'451062767F3B305009AA074435406107'
p1491
S'287D4324E3389C5B97DE9064DC68F7DD'
p1492
sS'5C0E703F5F21D1113A356C3B5EABF562'
p1493
S'720C1637EC413AA781A963C1E5C4663E'
p1494
sS'16B7A1476B9330F4551DDC032BCA5AD5'
p1495
S'287D4324E3389C5B97DE9064DC68F7DD'
p1496
sS'E456BB3F9D74B5C1BB456DD2D462402F'
p1497
S'720C1637EC413AA781A963C1E5C4663E'
p1498
sS'24031C69A4FC5A5DF30E37C21207BFE3'
p1499
S'287D4324E3389C5B97DE9064DC68F7DD'
p1500
sS'981A5DE1E781C24103A9294D316750F0'
p1501
S'287D4324E3389C5B97DE9064DC68F7DD'
p1502
sS'881604C4C489319853E66142C215DCBA'
p1503
S'720C1637EC413AA781A963C1E5C4663E'
p1504
sS'28759AF4EA5087F9FC673B88A847058E'
p1505
S'6B8ADE1CB130D694774329617665C1F8'
p1506
sS'BF05B555027112E445DDA87B5EE5620A'
p1507
S'720C1637EC413AA781A963C1E5C4663E'
p1508
sS'B1CE2385F1C817A9C6353E5FA8DA3984'
p1509
S'22893E61D51F1EB18B5DA7905CBBC57A'
p1510
sS'346C6BF3435E205F354B6DCE372331ED'
p1511
S'287D4324E3389C5B97DE9064DC68F7DD'
p1512
sS'CC4D36BF105A7E12FC123673C320B7FD'
p1513
S'720C1637EC413AA781A963C1E5C4663E'
p1514
sS'AE4AFF1B712F5AB745917E9F9346C3AD'
p1515
S'DB2AD55A8A33C4BA3E2572A0F2D1A258'
p1516
sS'76BDCC97BF6A7E4563D358933BF3C755'
p1517
S'287D4324E3389C5B97DE9064DC68F7DD'
p1518
sS'E100FD6A4489EA0B30859C6ED4ED76D6'
p1519
S'720C1637EC413AA781A963C1E5C4663E'
p1520
sS'4AC7D6A46A8172100DA618651ABABB2E'
p1521
S'CB16F617795455CB77F269513D9A2652'
p1522
sS'77D12C2D563C6ED650DF616D5E9DA452'
p1523
S'56DDF4D8C0B4BC1EC9D42C809C2FD6E8'
p1524
sS'2F3021CAFAD18935DF3E7D53AC97C0D8'
p1525
S'08E551D564D0FF738F37FA586AAEC01E'
p1526
sS'C59851FEFA86577A2A2D8D9B79C80BED'
p1527
S'44E207C6DEA90F882C4F4EF28BF04E10'
p1528
sS'0DE491586F5F29D7AE72BF5BF2CF7EE3'
p1529
S'720C1637EC413AA781A963C1E5C4663E'
p1530
sS'622E781BDAE15340F59BCC9E1AFB322D'
p1531
S'287D4324E3389C5B97DE9064DC68F7DD'
p1532
sS'FEB332263ECAC39351916938C6C31737'
p1533
S'720C1637EC413AA781A963C1E5C4663E'
p1534
sS'95F1B3B1C78827333C1CE5BAC8383F4D'
p1535
S'720C1637EC413AA781A963C1E5C4663E'
p1536
sS'D1E35D2AD76475DC2D0C1D114B101ED4'
p1537
S'287D4324E3389C5B97DE9064DC68F7DD'
p1538
sS'F76BC9DE6928C2D0D3FE59C1FA62D095'
p1539
S'316F8566527AA64D7E94DE150DF3DFF2'
p1540
sS'A1A62AB65B309DFA860FA971748803BA'
p1541
S'720C1637EC413AA781A963C1E5C4663E'
p1542
sS'C43BC72AD854A7D06F5DBE00E01FF696'
p1543
S'287D4324E3389C5B97DE9064DC68F7DD'
p1544
sS'E1F0DD972BADDCDDECA48B7FCC71B600'
p1545
S'AFED820F1C5E613CBD876A779A844D30'
p1546
sS'EF86905D61A17CB94FC6A4B10DD5DFBD'
p1547
S'287D4324E3389C5B97DE9064DC68F7DD'
p1548
sS'3527190A9CF77FB272EFB1A316890A04'
p1549
S'720C1637EC413AA781A963C1E5C4663E'
p1550
sS'0162C03AB0D5DA287143F0C5C7A44067'
p1551
S'287D4324E3389C5B97DE9064DC68F7DD'
p1552
sS'C046820199F53D44C206D17FF1998290'
p1553
S'287D4324E3389C5B97DE9064DC68F7DD'
p1554
sS'1659FE3CC7A30607AD5756969EFAB078'
p1555
S'CBD7A0119F9030C5EBA9FAE7C711EC1D'
p1556
sS'7C8717260F51FA5F85C7A7DC5CC8CD21'
p1557
S'720C1637EC413AA781A963C1E5C4663E'
p1558
sS'63BD6013AE8CF977BB029612375DD078'
p1559
S'E746A8C4A3153133EE309DFA22B4C2CD'
p1560
sS'92267617F4A5D080200EAB2CB586FDD5'
p1561
S'287D4324E3389C5B97DE9064DC68F7DD'
p1562
sS'6A0B016D95B1705A408AE20494F5783D'
p1563
S'287D4324E3389C5B97DE9064DC68F7DD'
p1564
sS'A9E43DAB4EB1078945FB2B93A8A8F844'
p1565
S'287D4324E3389C5B97DE9064DC68F7DD'
p1566
sS'6AB4913C2B72260D85446F89D25B5AF0'
p1567
S'287D4324E3389C5B97DE9064DC68F7DD'
p1568
sS'A589B8688D111FFC4E3AD5F67AD28726'
p1569
S'287D4324E3389C5B97DE9064DC68F7DD'
p1570
sS'0308322AFD032B52E665B71FA81B1B51'
p1571
S'287D4324E3389C5B97DE9064DC68F7DD'
p1572
sS'0BE39F0D86A1DEB6D2B620A146FDAC64'
p1573
S'F555167B277AEE2155094FB72AD58785'
p1574
sS'4032C75BB0BD3E442921229581D5E3F3'
p1575
S'287D4324E3389C5B97DE9064DC68F7DD'
p1576
sS'D0FBD32F2D73B369D66A595852F39833'
p1577
S'03EE9DD89FEBFAD9665B5CCA6A94F14E'
p1578
sS'0FC1CDD9A705A214A1142F5EB751FC1E'
p1579
S'287D4324E3389C5B97DE9064DC68F7DD'
p1580
sS'2BB58B0D9CC4072B811E6C9DCBB89E07'
p1581
S'720C1637EC413AA781A963C1E5C4663E'
p1582
sS'B20A82A98F60A01C9DF89231E9DC62E7'
p1583
S'B33BA6D332862F751A35998D3ED81118'
p1584
sS'991A120FA11092863B796A59E6771601'
p1585
S'287D4324E3389C5B97DE9064DC68F7DD'
p1586
sS'6B5AD0E10AD370F311123254ED55329E'
p1587
S'287D4324E3389C5B97DE9064DC68F7DD'
p1588
sS'36A0CC96CC82803E32909BF0AF6598AD'
p1589
S'720C1637EC413AA781A963C1E5C4663E'
p1590
sS'54C3703C04DA8AF87428BA32C928F8B9'
p1591
S'287D4324E3389C5B97DE9064DC68F7DD'
p1592
sS'0F99AE9004D07624E4D2D46D302E4836'
p1593
S'720C1637EC413AA781A963C1E5C4663E'
p1594
sS'3EF64A5536ACCFFB801DBB4BBB4B4674'
p1595
S'287D4324E3389C5B97DE9064DC68F7DD'
p1596
sS'21F46AFF04E72B48C7ECAD6BE242F1D2'
p1597
S'287D4324E3389C5B97DE9064DC68F7DD'
p1598
sS'199C194349C1ED4985C8E9AB784C476B'
p1599
S'13E39F2E712BEDBC497DBD19F410D73D'
p1600
sS'65C87F07B404EC2E10AC79EF58784CBF'
p1601
S'287D4324E3389C5B97DE9064DC68F7DD'
p1602
sS'0A7ED2B1F298E2B352A878BF567EC465'
p1603
S'287D4324E3389C5B97DE9064DC68F7DD'
p1604
sS'A0113D39F1D54965022D563D902276B2'
p1605
S'26CFEACE140D70D0ACF2DC45AAEA73A1'
p1606
sS'CBA64BFDE2C00AAA6F74735222896473'
p1607
S'287D4324E3389C5B97DE9064DC68F7DD'
p1608
sS'1546E8DC55234867A9BF4BB28BEBDFE0'
p1609
S'558023734828116639BCBE3A53F4785E'
p1610
sS'604C8AD820E561CF2911CC8CBF9D99E2'
p1611
S'DB2AD55A8A33C4BA3E2572A0F2D1A258'
p1612
sS'2E7A1F337063BF45A4742CE4587BBAE4'
p1613
S'720C1637EC413AA781A963C1E5C4663E'
p1614
sS'70A9C82DE7BF858A76DBF0D4821E5F1B'
p1615
S'923202B1D7EEAA98E7BB4AA435B10964'
p1616
sS'460ED68479AA6E353E4255D7D28DF47F'
p1617
S'3C57BF5CBD6F7C8BC58FA6417D216639'
p1618
sS'43C5DAAC3C8E34B7506C0708246B757D'
p1619
S'720C1637EC413AA781A963C1E5C4663E'
p1620
sS'A059CB707C49DFEE5E4B99DBBBA50AF0'
p1621
S'720C1637EC413AA781A963C1E5C4663E'
p1622
sS'DDA026C97423AD6E54C509E43A0CBCFB'
p1623
S'26DCB5937890E3914F9BDA2000A98CA5'
p1624
sS'1A99FB59419BC46D60C905E02D1D8E1D'
p1625
S'287D4324E3389C5B97DE9064DC68F7DD'
p1626
sS'9E9FD52FDF3D8C2CA3F64CB69993A70D'
p1627
S'720C1637EC413AA781A963C1E5C4663E'
p1628
sS'494DE6D9CF210E30C6369DC829CBF9D9'
p1629
S'287D4324E3389C5B97DE9064DC68F7DD'
p1630
sS'BA50F9446996B7CCED08663981AC01B1'
p1631
S'F7BB9A1B004972B46425DAC3B139B46F'
p1632
sS'1DE5822AAA5C3ACA641A0E1D260D87A7'
p1633
S'720C1637EC413AA781A963C1E5C4663E'
p1634
sS'9AA6B3A3E07D0780AE4841293E4FC75E'
p1635
S'D3D1F3F38724F7FDCD8B622252D2BC4A'
p1636
sS'1E56B4279928C4EDD94CD00430E05BB8'
p1637
S'1EC77BC9879091E8D7F87B9A03B59EF8'
p1638
sS'DF1F29EE20B6DC15BD35296F0E08CDF2'
p1639
S'287D4324E3389C5B97DE9064DC68F7DD'
p1640
sS'99CE59B79B2806B88A9CF755B2C9F270'
p1641
S'4452ABAB7493788F1198FC7C2439370A'
p1642
sS'31F899FCAD7D5761237A7FD8126ADD33'
p1643
S'A9D049C1D28986115B97FA53F780B7AF'
p1644
sS'9879B3B74AB5DBEB3EA530C91B0A55A3'
p1645
S'720C1637EC413AA781A963C1E5C4663E'
p1646
sS'76303C26F6549840C8C01C25DCBDE485'
p1647
S'287D4324E3389C5B97DE9064DC68F7DD'
p1648
sS'131A306CF0E3EE2A5E46AD25125CE49D'
p1649
S'287D4324E3389C5B97DE9064DC68F7DD'
p1650
sS'542B6E94FC2B05FCD3E01E2045A45233'
p1651
S'F17317C52070CF8E98FA766CF6F38FF7'
p1652
sS'FE9F026218FA6DE09FECFA9C2E757F18'
p1653
S'287D4324E3389C5B97DE9064DC68F7DD'
p1654
sS'C110E173674E3B1890E82B8A60DFBE89'
p1655
S'E746A8C4A3153133EE309DFA22B4C2CD'
p1656
sS'932C31BB8A07AE41D8B1B1937ED574E4'
p1657
S'2D08B84546AC3A5EAF60A473AF9E04ED'
p1658
sS'CE5DE6F63AA5127ED48996EC498B97F5'
p1659
S'720C1637EC413AA781A963C1E5C4663E'
p1660
sS'E3DFE0C1DE5A00AB610D75E7B450C198'
p1661
S'287D4324E3389C5B97DE9064DC68F7DD'
p1662
sS'3A81B0A9CE70BD2E7DC167C0CF7E58BB'
p1663
S'1E4BBCEE1A524D60359A90152A2C3C19'
p1664
sS'D17863FD39A0F55AA6EFD66C7795A368'
p1665
S'720C1637EC413AA781A963C1E5C4663E'
p1666
sS'683FC96070D4B7E804795C586C2E0E58'
p1667
S'720C1637EC413AA781A963C1E5C4663E'
p1668
sS'DAC988B634D135BD2C383D7E6A370C66'
p1669
S'2958653245A452DEEB73AF49C264250F'
p1670
sS'CDD66FB8C0D146D8A52CC1B68416A88E'
p1671
S'39B679CB52CC944840E62C7F1AD0BBDA'
p1672
sS'97AC929162A0E599339EA6BA49EC7D8A'
p1673
S'287D4324E3389C5B97DE9064DC68F7DD'
p1674
sS'5DECF028559A1C7C0B000E3F9B0028A3'
p1675
S'287D4324E3389C5B97DE9064DC68F7DD'
p1676
sS'42B85CF13A6E5273436E9B00A48176CC'
p1677
S'287D4324E3389C5B97DE9064DC68F7DD'
p1678
sS'61DFCE23E9C5B1F596D84E0D9F892A02'
p1679
S'48352C504A338F85134577D6162D2B46'
p1680
sS'30C8D1C6E42E52D7215891C4D074EC9F'
p1681
S'ECC22370678153DE4489ADF407A0E3E3'
p1682
sS'41AAC5109AA66F2D06630226080AF03A'
p1683
S'720C1637EC413AA781A963C1E5C4663E'
p1684
sS'530A68E0A422C59F9B3A276B170F27AB'
p1685
S'8C1DBEC1D69F11D9C7D5BAFD04BAFD7E'
p1686
sS'3479E7EFFA9B90FD20398A74C7539708'
p1687
S'04E64383144B960028F8E5E4D2A1494F'
p1688
sS'036ABA0300024A03A8DF5895747AE6EF'
p1689
S'B16FF29EF6281314357CE76FDA6E6596'
p1690
sS'416B29ECB847C2F3BF35281C1646171B'
p1691
S'5D8D5DBBF6B7AD553A60F7491E34B34E'
p1692
sS'312AB38484420B1632D41693219CB1F0'
p1693
S'287D4324E3389C5B97DE9064DC68F7DD'
p1694
sS'DC02365430796E5DEC50467EE1860A50'
p1695
S'EF325C65B5B6EA5276CF24FACF35350E'
p1696
sS'5304D40A6DC28F3369A59FDB6F20A28E'
p1697
S'2BCEBD1E7D3367927EBD42067E54CAD7'
p1698
sS'87FA8DFEEB1D0AA642665992E978BFA5'
p1699
S'D1B3D2CDE23B1031BA09052E7096FB22'
p1700
sS'39031C2E1BA859B951E02C0CF57162EB'
p1701
S'287D4324E3389C5B97DE9064DC68F7DD'
p1702
s.